
Lab8.elf:     file format elf32-littlearm


Disassembly of section .text:

080001d0 <__do_global_dtors_aux>:
 80001d0:	b510      	push	{r4, lr}
 80001d2:	4c05      	ldr	r4, [pc, #20]	; (80001e8 <__do_global_dtors_aux+0x18>)
 80001d4:	7823      	ldrb	r3, [r4, #0]
 80001d6:	b933      	cbnz	r3, 80001e6 <__do_global_dtors_aux+0x16>
 80001d8:	4b04      	ldr	r3, [pc, #16]	; (80001ec <__do_global_dtors_aux+0x1c>)
 80001da:	b113      	cbz	r3, 80001e2 <__do_global_dtors_aux+0x12>
 80001dc:	4804      	ldr	r0, [pc, #16]	; (80001f0 <__do_global_dtors_aux+0x20>)
 80001de:	f3af 8000 	nop.w
 80001e2:	2301      	movs	r3, #1
 80001e4:	7023      	strb	r3, [r4, #0]
 80001e6:	bd10      	pop	{r4, pc}
 80001e8:	20000230 	.word	0x20000230
 80001ec:	00000000 	.word	0x00000000
 80001f0:	08005640 	.word	0x08005640

080001f4 <frame_dummy>:
 80001f4:	4b0c      	ldr	r3, [pc, #48]	; (8000228 <frame_dummy+0x34>)
 80001f6:	b143      	cbz	r3, 800020a <frame_dummy+0x16>
 80001f8:	480c      	ldr	r0, [pc, #48]	; (800022c <frame_dummy+0x38>)
 80001fa:	490d      	ldr	r1, [pc, #52]	; (8000230 <frame_dummy+0x3c>)
 80001fc:	b510      	push	{r4, lr}
 80001fe:	f3af 8000 	nop.w
 8000202:	480c      	ldr	r0, [pc, #48]	; (8000234 <frame_dummy+0x40>)
 8000204:	6803      	ldr	r3, [r0, #0]
 8000206:	b923      	cbnz	r3, 8000212 <frame_dummy+0x1e>
 8000208:	bd10      	pop	{r4, pc}
 800020a:	480a      	ldr	r0, [pc, #40]	; (8000234 <frame_dummy+0x40>)
 800020c:	6803      	ldr	r3, [r0, #0]
 800020e:	b933      	cbnz	r3, 800021e <frame_dummy+0x2a>
 8000210:	4770      	bx	lr
 8000212:	4b09      	ldr	r3, [pc, #36]	; (8000238 <frame_dummy+0x44>)
 8000214:	2b00      	cmp	r3, #0
 8000216:	d0f7      	beq.n	8000208 <frame_dummy+0x14>
 8000218:	e8bd 4010 	ldmia.w	sp!, {r4, lr}
 800021c:	4718      	bx	r3
 800021e:	4b06      	ldr	r3, [pc, #24]	; (8000238 <frame_dummy+0x44>)
 8000220:	2b00      	cmp	r3, #0
 8000222:	d0f5      	beq.n	8000210 <frame_dummy+0x1c>
 8000224:	4718      	bx	r3
 8000226:	bf00      	nop
 8000228:	00000000 	.word	0x00000000
 800022c:	08005640 	.word	0x08005640
 8000230:	20000234 	.word	0x20000234
 8000234:	20000230 	.word	0x20000230
 8000238:	00000000 	.word	0x00000000

0800023c <strlen>:
 800023c:	4603      	mov	r3, r0
 800023e:	f813 2b01 	ldrb.w	r2, [r3], #1
 8000242:	2a00      	cmp	r2, #0
 8000244:	d1fb      	bne.n	800023e <strlen+0x2>
 8000246:	1a18      	subs	r0, r3, r0
 8000248:	3801      	subs	r0, #1
 800024a:	4770      	bx	lr
 800024c:	0000      	movs	r0, r0
	...

08000250 <memchr>:
 8000250:	f001 01ff 	and.w	r1, r1, #255	; 0xff
 8000254:	2a10      	cmp	r2, #16
 8000256:	db2b      	blt.n	80002b0 <memchr+0x60>
 8000258:	f010 0f07 	tst.w	r0, #7
 800025c:	d008      	beq.n	8000270 <memchr+0x20>
 800025e:	f810 3b01 	ldrb.w	r3, [r0], #1
 8000262:	3a01      	subs	r2, #1
 8000264:	428b      	cmp	r3, r1
 8000266:	d02d      	beq.n	80002c4 <memchr+0x74>
 8000268:	f010 0f07 	tst.w	r0, #7
 800026c:	b342      	cbz	r2, 80002c0 <memchr+0x70>
 800026e:	d1f6      	bne.n	800025e <memchr+0xe>
 8000270:	b4f0      	push	{r4, r5, r6, r7}
 8000272:	ea41 2101 	orr.w	r1, r1, r1, lsl #8
 8000276:	ea41 4101 	orr.w	r1, r1, r1, lsl #16
 800027a:	f022 0407 	bic.w	r4, r2, #7
 800027e:	f07f 0700 	mvns.w	r7, #0
 8000282:	2300      	movs	r3, #0
 8000284:	e8f0 5602 	ldrd	r5, r6, [r0], #8
 8000288:	3c08      	subs	r4, #8
 800028a:	ea85 0501 	eor.w	r5, r5, r1
 800028e:	ea86 0601 	eor.w	r6, r6, r1
 8000292:	fa85 f547 	uadd8	r5, r5, r7
 8000296:	faa3 f587 	sel	r5, r3, r7
 800029a:	fa86 f647 	uadd8	r6, r6, r7
 800029e:	faa5 f687 	sel	r6, r5, r7
 80002a2:	b98e      	cbnz	r6, 80002c8 <memchr+0x78>
 80002a4:	d1ee      	bne.n	8000284 <memchr+0x34>
 80002a6:	bcf0      	pop	{r4, r5, r6, r7}
 80002a8:	f001 01ff 	and.w	r1, r1, #255	; 0xff
 80002ac:	f002 0207 	and.w	r2, r2, #7
 80002b0:	b132      	cbz	r2, 80002c0 <memchr+0x70>
 80002b2:	f810 3b01 	ldrb.w	r3, [r0], #1
 80002b6:	3a01      	subs	r2, #1
 80002b8:	ea83 0301 	eor.w	r3, r3, r1
 80002bc:	b113      	cbz	r3, 80002c4 <memchr+0x74>
 80002be:	d1f8      	bne.n	80002b2 <memchr+0x62>
 80002c0:	2000      	movs	r0, #0
 80002c2:	4770      	bx	lr
 80002c4:	3801      	subs	r0, #1
 80002c6:	4770      	bx	lr
 80002c8:	2d00      	cmp	r5, #0
 80002ca:	bf06      	itte	eq
 80002cc:	4635      	moveq	r5, r6
 80002ce:	3803      	subeq	r0, #3
 80002d0:	3807      	subne	r0, #7
 80002d2:	f015 0f01 	tst.w	r5, #1
 80002d6:	d107      	bne.n	80002e8 <memchr+0x98>
 80002d8:	3001      	adds	r0, #1
 80002da:	f415 7f80 	tst.w	r5, #256	; 0x100
 80002de:	bf02      	ittt	eq
 80002e0:	3001      	addeq	r0, #1
 80002e2:	f415 3fc0 	tsteq.w	r5, #98304	; 0x18000
 80002e6:	3001      	addeq	r0, #1
 80002e8:	bcf0      	pop	{r4, r5, r6, r7}
 80002ea:	3801      	subs	r0, #1
 80002ec:	4770      	bx	lr
 80002ee:	bf00      	nop

080002f0 <__aeabi_drsub>:
 80002f0:	f081 4100 	eor.w	r1, r1, #2147483648	; 0x80000000
 80002f4:	e002      	b.n	80002fc <__adddf3>
 80002f6:	bf00      	nop

080002f8 <__aeabi_dsub>:
 80002f8:	f083 4300 	eor.w	r3, r3, #2147483648	; 0x80000000

080002fc <__adddf3>:
 80002fc:	b530      	push	{r4, r5, lr}
 80002fe:	ea4f 0441 	mov.w	r4, r1, lsl #1
 8000302:	ea4f 0543 	mov.w	r5, r3, lsl #1
 8000306:	ea94 0f05 	teq	r4, r5
 800030a:	bf08      	it	eq
 800030c:	ea90 0f02 	teqeq	r0, r2
 8000310:	bf1f      	itttt	ne
 8000312:	ea54 0c00 	orrsne.w	ip, r4, r0
 8000316:	ea55 0c02 	orrsne.w	ip, r5, r2
 800031a:	ea7f 5c64 	mvnsne.w	ip, r4, asr #21
 800031e:	ea7f 5c65 	mvnsne.w	ip, r5, asr #21
 8000322:	f000 80e2 	beq.w	80004ea <__adddf3+0x1ee>
 8000326:	ea4f 5454 	mov.w	r4, r4, lsr #21
 800032a:	ebd4 5555 	rsbs	r5, r4, r5, lsr #21
 800032e:	bfb8      	it	lt
 8000330:	426d      	neglt	r5, r5
 8000332:	dd0c      	ble.n	800034e <__adddf3+0x52>
 8000334:	442c      	add	r4, r5
 8000336:	ea80 0202 	eor.w	r2, r0, r2
 800033a:	ea81 0303 	eor.w	r3, r1, r3
 800033e:	ea82 0000 	eor.w	r0, r2, r0
 8000342:	ea83 0101 	eor.w	r1, r3, r1
 8000346:	ea80 0202 	eor.w	r2, r0, r2
 800034a:	ea81 0303 	eor.w	r3, r1, r3
 800034e:	2d36      	cmp	r5, #54	; 0x36
 8000350:	bf88      	it	hi
 8000352:	bd30      	pophi	{r4, r5, pc}
 8000354:	f011 4f00 	tst.w	r1, #2147483648	; 0x80000000
 8000358:	ea4f 3101 	mov.w	r1, r1, lsl #12
 800035c:	f44f 1c80 	mov.w	ip, #1048576	; 0x100000
 8000360:	ea4c 3111 	orr.w	r1, ip, r1, lsr #12
 8000364:	d002      	beq.n	800036c <__adddf3+0x70>
 8000366:	4240      	negs	r0, r0
 8000368:	eb61 0141 	sbc.w	r1, r1, r1, lsl #1
 800036c:	f013 4f00 	tst.w	r3, #2147483648	; 0x80000000
 8000370:	ea4f 3303 	mov.w	r3, r3, lsl #12
 8000374:	ea4c 3313 	orr.w	r3, ip, r3, lsr #12
 8000378:	d002      	beq.n	8000380 <__adddf3+0x84>
 800037a:	4252      	negs	r2, r2
 800037c:	eb63 0343 	sbc.w	r3, r3, r3, lsl #1
 8000380:	ea94 0f05 	teq	r4, r5
 8000384:	f000 80a7 	beq.w	80004d6 <__adddf3+0x1da>
 8000388:	f1a4 0401 	sub.w	r4, r4, #1
 800038c:	f1d5 0e20 	rsbs	lr, r5, #32
 8000390:	db0d      	blt.n	80003ae <__adddf3+0xb2>
 8000392:	fa02 fc0e 	lsl.w	ip, r2, lr
 8000396:	fa22 f205 	lsr.w	r2, r2, r5
 800039a:	1880      	adds	r0, r0, r2
 800039c:	f141 0100 	adc.w	r1, r1, #0
 80003a0:	fa03 f20e 	lsl.w	r2, r3, lr
 80003a4:	1880      	adds	r0, r0, r2
 80003a6:	fa43 f305 	asr.w	r3, r3, r5
 80003aa:	4159      	adcs	r1, r3
 80003ac:	e00e      	b.n	80003cc <__adddf3+0xd0>
 80003ae:	f1a5 0520 	sub.w	r5, r5, #32
 80003b2:	f10e 0e20 	add.w	lr, lr, #32
 80003b6:	2a01      	cmp	r2, #1
 80003b8:	fa03 fc0e 	lsl.w	ip, r3, lr
 80003bc:	bf28      	it	cs
 80003be:	f04c 0c02 	orrcs.w	ip, ip, #2
 80003c2:	fa43 f305 	asr.w	r3, r3, r5
 80003c6:	18c0      	adds	r0, r0, r3
 80003c8:	eb51 71e3 	adcs.w	r1, r1, r3, asr #31
 80003cc:	f001 4500 	and.w	r5, r1, #2147483648	; 0x80000000
 80003d0:	d507      	bpl.n	80003e2 <__adddf3+0xe6>
 80003d2:	f04f 0e00 	mov.w	lr, #0
 80003d6:	f1dc 0c00 	rsbs	ip, ip, #0
 80003da:	eb7e 0000 	sbcs.w	r0, lr, r0
 80003de:	eb6e 0101 	sbc.w	r1, lr, r1
 80003e2:	f5b1 1f80 	cmp.w	r1, #1048576	; 0x100000
 80003e6:	d31b      	bcc.n	8000420 <__adddf3+0x124>
 80003e8:	f5b1 1f00 	cmp.w	r1, #2097152	; 0x200000
 80003ec:	d30c      	bcc.n	8000408 <__adddf3+0x10c>
 80003ee:	0849      	lsrs	r1, r1, #1
 80003f0:	ea5f 0030 	movs.w	r0, r0, rrx
 80003f4:	ea4f 0c3c 	mov.w	ip, ip, rrx
 80003f8:	f104 0401 	add.w	r4, r4, #1
 80003fc:	ea4f 5244 	mov.w	r2, r4, lsl #21
 8000400:	f512 0f80 	cmn.w	r2, #4194304	; 0x400000
 8000404:	f080 809a 	bcs.w	800053c <__adddf3+0x240>
 8000408:	f1bc 4f00 	cmp.w	ip, #2147483648	; 0x80000000
 800040c:	bf08      	it	eq
 800040e:	ea5f 0c50 	movseq.w	ip, r0, lsr #1
 8000412:	f150 0000 	adcs.w	r0, r0, #0
 8000416:	eb41 5104 	adc.w	r1, r1, r4, lsl #20
 800041a:	ea41 0105 	orr.w	r1, r1, r5
 800041e:	bd30      	pop	{r4, r5, pc}
 8000420:	ea5f 0c4c 	movs.w	ip, ip, lsl #1
 8000424:	4140      	adcs	r0, r0
 8000426:	eb41 0101 	adc.w	r1, r1, r1
 800042a:	f411 1f80 	tst.w	r1, #1048576	; 0x100000
 800042e:	f1a4 0401 	sub.w	r4, r4, #1
 8000432:	d1e9      	bne.n	8000408 <__adddf3+0x10c>
 8000434:	f091 0f00 	teq	r1, #0
 8000438:	bf04      	itt	eq
 800043a:	4601      	moveq	r1, r0
 800043c:	2000      	moveq	r0, #0
 800043e:	fab1 f381 	clz	r3, r1
 8000442:	bf08      	it	eq
 8000444:	3320      	addeq	r3, #32
 8000446:	f1a3 030b 	sub.w	r3, r3, #11
 800044a:	f1b3 0220 	subs.w	r2, r3, #32
 800044e:	da0c      	bge.n	800046a <__adddf3+0x16e>
 8000450:	320c      	adds	r2, #12
 8000452:	dd08      	ble.n	8000466 <__adddf3+0x16a>
 8000454:	f102 0c14 	add.w	ip, r2, #20
 8000458:	f1c2 020c 	rsb	r2, r2, #12
 800045c:	fa01 f00c 	lsl.w	r0, r1, ip
 8000460:	fa21 f102 	lsr.w	r1, r1, r2
 8000464:	e00c      	b.n	8000480 <__adddf3+0x184>
 8000466:	f102 0214 	add.w	r2, r2, #20
 800046a:	bfd8      	it	le
 800046c:	f1c2 0c20 	rsble	ip, r2, #32
 8000470:	fa01 f102 	lsl.w	r1, r1, r2
 8000474:	fa20 fc0c 	lsr.w	ip, r0, ip
 8000478:	bfdc      	itt	le
 800047a:	ea41 010c 	orrle.w	r1, r1, ip
 800047e:	4090      	lslle	r0, r2
 8000480:	1ae4      	subs	r4, r4, r3
 8000482:	bfa2      	ittt	ge
 8000484:	eb01 5104 	addge.w	r1, r1, r4, lsl #20
 8000488:	4329      	orrge	r1, r5
 800048a:	bd30      	popge	{r4, r5, pc}
 800048c:	ea6f 0404 	mvn.w	r4, r4
 8000490:	3c1f      	subs	r4, #31
 8000492:	da1c      	bge.n	80004ce <__adddf3+0x1d2>
 8000494:	340c      	adds	r4, #12
 8000496:	dc0e      	bgt.n	80004b6 <__adddf3+0x1ba>
 8000498:	f104 0414 	add.w	r4, r4, #20
 800049c:	f1c4 0220 	rsb	r2, r4, #32
 80004a0:	fa20 f004 	lsr.w	r0, r0, r4
 80004a4:	fa01 f302 	lsl.w	r3, r1, r2
 80004a8:	ea40 0003 	orr.w	r0, r0, r3
 80004ac:	fa21 f304 	lsr.w	r3, r1, r4
 80004b0:	ea45 0103 	orr.w	r1, r5, r3
 80004b4:	bd30      	pop	{r4, r5, pc}
 80004b6:	f1c4 040c 	rsb	r4, r4, #12
 80004ba:	f1c4 0220 	rsb	r2, r4, #32
 80004be:	fa20 f002 	lsr.w	r0, r0, r2
 80004c2:	fa01 f304 	lsl.w	r3, r1, r4
 80004c6:	ea40 0003 	orr.w	r0, r0, r3
 80004ca:	4629      	mov	r1, r5
 80004cc:	bd30      	pop	{r4, r5, pc}
 80004ce:	fa21 f004 	lsr.w	r0, r1, r4
 80004d2:	4629      	mov	r1, r5
 80004d4:	bd30      	pop	{r4, r5, pc}
 80004d6:	f094 0f00 	teq	r4, #0
 80004da:	f483 1380 	eor.w	r3, r3, #1048576	; 0x100000
 80004de:	bf06      	itte	eq
 80004e0:	f481 1180 	eoreq.w	r1, r1, #1048576	; 0x100000
 80004e4:	3401      	addeq	r4, #1
 80004e6:	3d01      	subne	r5, #1
 80004e8:	e74e      	b.n	8000388 <__adddf3+0x8c>
 80004ea:	ea7f 5c64 	mvns.w	ip, r4, asr #21
 80004ee:	bf18      	it	ne
 80004f0:	ea7f 5c65 	mvnsne.w	ip, r5, asr #21
 80004f4:	d029      	beq.n	800054a <__adddf3+0x24e>
 80004f6:	ea94 0f05 	teq	r4, r5
 80004fa:	bf08      	it	eq
 80004fc:	ea90 0f02 	teqeq	r0, r2
 8000500:	d005      	beq.n	800050e <__adddf3+0x212>
 8000502:	ea54 0c00 	orrs.w	ip, r4, r0
 8000506:	bf04      	itt	eq
 8000508:	4619      	moveq	r1, r3
 800050a:	4610      	moveq	r0, r2
 800050c:	bd30      	pop	{r4, r5, pc}
 800050e:	ea91 0f03 	teq	r1, r3
 8000512:	bf1e      	ittt	ne
 8000514:	2100      	movne	r1, #0
 8000516:	2000      	movne	r0, #0
 8000518:	bd30      	popne	{r4, r5, pc}
 800051a:	ea5f 5c54 	movs.w	ip, r4, lsr #21
 800051e:	d105      	bne.n	800052c <__adddf3+0x230>
 8000520:	0040      	lsls	r0, r0, #1
 8000522:	4149      	adcs	r1, r1
 8000524:	bf28      	it	cs
 8000526:	f041 4100 	orrcs.w	r1, r1, #2147483648	; 0x80000000
 800052a:	bd30      	pop	{r4, r5, pc}
 800052c:	f514 0480 	adds.w	r4, r4, #4194304	; 0x400000
 8000530:	bf3c      	itt	cc
 8000532:	f501 1180 	addcc.w	r1, r1, #1048576	; 0x100000
 8000536:	bd30      	popcc	{r4, r5, pc}
 8000538:	f001 4500 	and.w	r5, r1, #2147483648	; 0x80000000
 800053c:	f045 41fe 	orr.w	r1, r5, #2130706432	; 0x7f000000
 8000540:	f441 0170 	orr.w	r1, r1, #15728640	; 0xf00000
 8000544:	f04f 0000 	mov.w	r0, #0
 8000548:	bd30      	pop	{r4, r5, pc}
 800054a:	ea7f 5c64 	mvns.w	ip, r4, asr #21
 800054e:	bf1a      	itte	ne
 8000550:	4619      	movne	r1, r3
 8000552:	4610      	movne	r0, r2
 8000554:	ea7f 5c65 	mvnseq.w	ip, r5, asr #21
 8000558:	bf1c      	itt	ne
 800055a:	460b      	movne	r3, r1
 800055c:	4602      	movne	r2, r0
 800055e:	ea50 3401 	orrs.w	r4, r0, r1, lsl #12
 8000562:	bf06      	itte	eq
 8000564:	ea52 3503 	orrseq.w	r5, r2, r3, lsl #12
 8000568:	ea91 0f03 	teqeq	r1, r3
 800056c:	f441 2100 	orrne.w	r1, r1, #524288	; 0x80000
 8000570:	bd30      	pop	{r4, r5, pc}
 8000572:	bf00      	nop

08000574 <__aeabi_ui2d>:
 8000574:	f090 0f00 	teq	r0, #0
 8000578:	bf04      	itt	eq
 800057a:	2100      	moveq	r1, #0
 800057c:	4770      	bxeq	lr
 800057e:	b530      	push	{r4, r5, lr}
 8000580:	f44f 6480 	mov.w	r4, #1024	; 0x400
 8000584:	f104 0432 	add.w	r4, r4, #50	; 0x32
 8000588:	f04f 0500 	mov.w	r5, #0
 800058c:	f04f 0100 	mov.w	r1, #0
 8000590:	e750      	b.n	8000434 <__adddf3+0x138>
 8000592:	bf00      	nop

08000594 <__aeabi_i2d>:
 8000594:	f090 0f00 	teq	r0, #0
 8000598:	bf04      	itt	eq
 800059a:	2100      	moveq	r1, #0
 800059c:	4770      	bxeq	lr
 800059e:	b530      	push	{r4, r5, lr}
 80005a0:	f44f 6480 	mov.w	r4, #1024	; 0x400
 80005a4:	f104 0432 	add.w	r4, r4, #50	; 0x32
 80005a8:	f010 4500 	ands.w	r5, r0, #2147483648	; 0x80000000
 80005ac:	bf48      	it	mi
 80005ae:	4240      	negmi	r0, r0
 80005b0:	f04f 0100 	mov.w	r1, #0
 80005b4:	e73e      	b.n	8000434 <__adddf3+0x138>
 80005b6:	bf00      	nop

080005b8 <__aeabi_f2d>:
 80005b8:	0042      	lsls	r2, r0, #1
 80005ba:	ea4f 01e2 	mov.w	r1, r2, asr #3
 80005be:	ea4f 0131 	mov.w	r1, r1, rrx
 80005c2:	ea4f 7002 	mov.w	r0, r2, lsl #28
 80005c6:	bf1f      	itttt	ne
 80005c8:	f012 437f 	andsne.w	r3, r2, #4278190080	; 0xff000000
 80005cc:	f093 4f7f 	teqne	r3, #4278190080	; 0xff000000
 80005d0:	f081 5160 	eorne.w	r1, r1, #939524096	; 0x38000000
 80005d4:	4770      	bxne	lr
 80005d6:	f092 0f00 	teq	r2, #0
 80005da:	bf14      	ite	ne
 80005dc:	f093 4f7f 	teqne	r3, #4278190080	; 0xff000000
 80005e0:	4770      	bxeq	lr
 80005e2:	b530      	push	{r4, r5, lr}
 80005e4:	f44f 7460 	mov.w	r4, #896	; 0x380
 80005e8:	f001 4500 	and.w	r5, r1, #2147483648	; 0x80000000
 80005ec:	f021 4100 	bic.w	r1, r1, #2147483648	; 0x80000000
 80005f0:	e720      	b.n	8000434 <__adddf3+0x138>
 80005f2:	bf00      	nop

080005f4 <__aeabi_ul2d>:
 80005f4:	ea50 0201 	orrs.w	r2, r0, r1
 80005f8:	bf08      	it	eq
 80005fa:	4770      	bxeq	lr
 80005fc:	b530      	push	{r4, r5, lr}
 80005fe:	f04f 0500 	mov.w	r5, #0
 8000602:	e00a      	b.n	800061a <__aeabi_l2d+0x16>

08000604 <__aeabi_l2d>:
 8000604:	ea50 0201 	orrs.w	r2, r0, r1
 8000608:	bf08      	it	eq
 800060a:	4770      	bxeq	lr
 800060c:	b530      	push	{r4, r5, lr}
 800060e:	f011 4500 	ands.w	r5, r1, #2147483648	; 0x80000000
 8000612:	d502      	bpl.n	800061a <__aeabi_l2d+0x16>
 8000614:	4240      	negs	r0, r0
 8000616:	eb61 0141 	sbc.w	r1, r1, r1, lsl #1
 800061a:	f44f 6480 	mov.w	r4, #1024	; 0x400
 800061e:	f104 0432 	add.w	r4, r4, #50	; 0x32
 8000622:	ea5f 5c91 	movs.w	ip, r1, lsr #22
 8000626:	f43f aedc 	beq.w	80003e2 <__adddf3+0xe6>
 800062a:	f04f 0203 	mov.w	r2, #3
 800062e:	ea5f 0cdc 	movs.w	ip, ip, lsr #3
 8000632:	bf18      	it	ne
 8000634:	3203      	addne	r2, #3
 8000636:	ea5f 0cdc 	movs.w	ip, ip, lsr #3
 800063a:	bf18      	it	ne
 800063c:	3203      	addne	r2, #3
 800063e:	eb02 02dc 	add.w	r2, r2, ip, lsr #3
 8000642:	f1c2 0320 	rsb	r3, r2, #32
 8000646:	fa00 fc03 	lsl.w	ip, r0, r3
 800064a:	fa20 f002 	lsr.w	r0, r0, r2
 800064e:	fa01 fe03 	lsl.w	lr, r1, r3
 8000652:	ea40 000e 	orr.w	r0, r0, lr
 8000656:	fa21 f102 	lsr.w	r1, r1, r2
 800065a:	4414      	add	r4, r2
 800065c:	e6c1      	b.n	80003e2 <__adddf3+0xe6>
 800065e:	bf00      	nop

08000660 <__aeabi_dmul>:
 8000660:	b570      	push	{r4, r5, r6, lr}
 8000662:	f04f 0cff 	mov.w	ip, #255	; 0xff
 8000666:	f44c 6ce0 	orr.w	ip, ip, #1792	; 0x700
 800066a:	ea1c 5411 	ands.w	r4, ip, r1, lsr #20
 800066e:	bf1d      	ittte	ne
 8000670:	ea1c 5513 	andsne.w	r5, ip, r3, lsr #20
 8000674:	ea94 0f0c 	teqne	r4, ip
 8000678:	ea95 0f0c 	teqne	r5, ip
 800067c:	f000 f8de 	bleq	800083c <__aeabi_dmul+0x1dc>
 8000680:	442c      	add	r4, r5
 8000682:	ea81 0603 	eor.w	r6, r1, r3
 8000686:	ea21 514c 	bic.w	r1, r1, ip, lsl #21
 800068a:	ea23 534c 	bic.w	r3, r3, ip, lsl #21
 800068e:	ea50 3501 	orrs.w	r5, r0, r1, lsl #12
 8000692:	bf18      	it	ne
 8000694:	ea52 3503 	orrsne.w	r5, r2, r3, lsl #12
 8000698:	f441 1180 	orr.w	r1, r1, #1048576	; 0x100000
 800069c:	f443 1380 	orr.w	r3, r3, #1048576	; 0x100000
 80006a0:	d038      	beq.n	8000714 <__aeabi_dmul+0xb4>
 80006a2:	fba0 ce02 	umull	ip, lr, r0, r2
 80006a6:	f04f 0500 	mov.w	r5, #0
 80006aa:	fbe1 e502 	umlal	lr, r5, r1, r2
 80006ae:	f006 4200 	and.w	r2, r6, #2147483648	; 0x80000000
 80006b2:	fbe0 e503 	umlal	lr, r5, r0, r3
 80006b6:	f04f 0600 	mov.w	r6, #0
 80006ba:	fbe1 5603 	umlal	r5, r6, r1, r3
 80006be:	f09c 0f00 	teq	ip, #0
 80006c2:	bf18      	it	ne
 80006c4:	f04e 0e01 	orrne.w	lr, lr, #1
 80006c8:	f1a4 04ff 	sub.w	r4, r4, #255	; 0xff
 80006cc:	f5b6 7f00 	cmp.w	r6, #512	; 0x200
 80006d0:	f564 7440 	sbc.w	r4, r4, #768	; 0x300
 80006d4:	d204      	bcs.n	80006e0 <__aeabi_dmul+0x80>
 80006d6:	ea5f 0e4e 	movs.w	lr, lr, lsl #1
 80006da:	416d      	adcs	r5, r5
 80006dc:	eb46 0606 	adc.w	r6, r6, r6
 80006e0:	ea42 21c6 	orr.w	r1, r2, r6, lsl #11
 80006e4:	ea41 5155 	orr.w	r1, r1, r5, lsr #21
 80006e8:	ea4f 20c5 	mov.w	r0, r5, lsl #11
 80006ec:	ea40 505e 	orr.w	r0, r0, lr, lsr #21
 80006f0:	ea4f 2ece 	mov.w	lr, lr, lsl #11
 80006f4:	f1b4 0cfd 	subs.w	ip, r4, #253	; 0xfd
 80006f8:	bf88      	it	hi
 80006fa:	f5bc 6fe0 	cmphi.w	ip, #1792	; 0x700
 80006fe:	d81e      	bhi.n	800073e <__aeabi_dmul+0xde>
 8000700:	f1be 4f00 	cmp.w	lr, #2147483648	; 0x80000000
 8000704:	bf08      	it	eq
 8000706:	ea5f 0e50 	movseq.w	lr, r0, lsr #1
 800070a:	f150 0000 	adcs.w	r0, r0, #0
 800070e:	eb41 5104 	adc.w	r1, r1, r4, lsl #20
 8000712:	bd70      	pop	{r4, r5, r6, pc}
 8000714:	f006 4600 	and.w	r6, r6, #2147483648	; 0x80000000
 8000718:	ea46 0101 	orr.w	r1, r6, r1
 800071c:	ea40 0002 	orr.w	r0, r0, r2
 8000720:	ea81 0103 	eor.w	r1, r1, r3
 8000724:	ebb4 045c 	subs.w	r4, r4, ip, lsr #1
 8000728:	bfc2      	ittt	gt
 800072a:	ebd4 050c 	rsbsgt	r5, r4, ip
 800072e:	ea41 5104 	orrgt.w	r1, r1, r4, lsl #20
 8000732:	bd70      	popgt	{r4, r5, r6, pc}
 8000734:	f441 1180 	orr.w	r1, r1, #1048576	; 0x100000
 8000738:	f04f 0e00 	mov.w	lr, #0
 800073c:	3c01      	subs	r4, #1
 800073e:	f300 80ab 	bgt.w	8000898 <__aeabi_dmul+0x238>
 8000742:	f114 0f36 	cmn.w	r4, #54	; 0x36
 8000746:	bfde      	ittt	le
 8000748:	2000      	movle	r0, #0
 800074a:	f001 4100 	andle.w	r1, r1, #2147483648	; 0x80000000
 800074e:	bd70      	pople	{r4, r5, r6, pc}
 8000750:	f1c4 0400 	rsb	r4, r4, #0
 8000754:	3c20      	subs	r4, #32
 8000756:	da35      	bge.n	80007c4 <__aeabi_dmul+0x164>
 8000758:	340c      	adds	r4, #12
 800075a:	dc1b      	bgt.n	8000794 <__aeabi_dmul+0x134>
 800075c:	f104 0414 	add.w	r4, r4, #20
 8000760:	f1c4 0520 	rsb	r5, r4, #32
 8000764:	fa00 f305 	lsl.w	r3, r0, r5
 8000768:	fa20 f004 	lsr.w	r0, r0, r4
 800076c:	fa01 f205 	lsl.w	r2, r1, r5
 8000770:	ea40 0002 	orr.w	r0, r0, r2
 8000774:	f001 4200 	and.w	r2, r1, #2147483648	; 0x80000000
 8000778:	f021 4100 	bic.w	r1, r1, #2147483648	; 0x80000000
 800077c:	eb10 70d3 	adds.w	r0, r0, r3, lsr #31
 8000780:	fa21 f604 	lsr.w	r6, r1, r4
 8000784:	eb42 0106 	adc.w	r1, r2, r6
 8000788:	ea5e 0e43 	orrs.w	lr, lr, r3, lsl #1
 800078c:	bf08      	it	eq
 800078e:	ea20 70d3 	biceq.w	r0, r0, r3, lsr #31
 8000792:	bd70      	pop	{r4, r5, r6, pc}
 8000794:	f1c4 040c 	rsb	r4, r4, #12
 8000798:	f1c4 0520 	rsb	r5, r4, #32
 800079c:	fa00 f304 	lsl.w	r3, r0, r4
 80007a0:	fa20 f005 	lsr.w	r0, r0, r5
 80007a4:	fa01 f204 	lsl.w	r2, r1, r4
 80007a8:	ea40 0002 	orr.w	r0, r0, r2
 80007ac:	f001 4100 	and.w	r1, r1, #2147483648	; 0x80000000
 80007b0:	eb10 70d3 	adds.w	r0, r0, r3, lsr #31
 80007b4:	f141 0100 	adc.w	r1, r1, #0
 80007b8:	ea5e 0e43 	orrs.w	lr, lr, r3, lsl #1
 80007bc:	bf08      	it	eq
 80007be:	ea20 70d3 	biceq.w	r0, r0, r3, lsr #31
 80007c2:	bd70      	pop	{r4, r5, r6, pc}
 80007c4:	f1c4 0520 	rsb	r5, r4, #32
 80007c8:	fa00 f205 	lsl.w	r2, r0, r5
 80007cc:	ea4e 0e02 	orr.w	lr, lr, r2
 80007d0:	fa20 f304 	lsr.w	r3, r0, r4
 80007d4:	fa01 f205 	lsl.w	r2, r1, r5
 80007d8:	ea43 0302 	orr.w	r3, r3, r2
 80007dc:	fa21 f004 	lsr.w	r0, r1, r4
 80007e0:	f001 4100 	and.w	r1, r1, #2147483648	; 0x80000000
 80007e4:	fa21 f204 	lsr.w	r2, r1, r4
 80007e8:	ea20 0002 	bic.w	r0, r0, r2
 80007ec:	eb00 70d3 	add.w	r0, r0, r3, lsr #31
 80007f0:	ea5e 0e43 	orrs.w	lr, lr, r3, lsl #1
 80007f4:	bf08      	it	eq
 80007f6:	ea20 70d3 	biceq.w	r0, r0, r3, lsr #31
 80007fa:	bd70      	pop	{r4, r5, r6, pc}
 80007fc:	f094 0f00 	teq	r4, #0
 8000800:	d10f      	bne.n	8000822 <__aeabi_dmul+0x1c2>
 8000802:	f001 4600 	and.w	r6, r1, #2147483648	; 0x80000000
 8000806:	0040      	lsls	r0, r0, #1
 8000808:	eb41 0101 	adc.w	r1, r1, r1
 800080c:	f411 1f80 	tst.w	r1, #1048576	; 0x100000
 8000810:	bf08      	it	eq
 8000812:	3c01      	subeq	r4, #1
 8000814:	d0f7      	beq.n	8000806 <__aeabi_dmul+0x1a6>
 8000816:	ea41 0106 	orr.w	r1, r1, r6
 800081a:	f095 0f00 	teq	r5, #0
 800081e:	bf18      	it	ne
 8000820:	4770      	bxne	lr
 8000822:	f003 4600 	and.w	r6, r3, #2147483648	; 0x80000000
 8000826:	0052      	lsls	r2, r2, #1
 8000828:	eb43 0303 	adc.w	r3, r3, r3
 800082c:	f413 1f80 	tst.w	r3, #1048576	; 0x100000
 8000830:	bf08      	it	eq
 8000832:	3d01      	subeq	r5, #1
 8000834:	d0f7      	beq.n	8000826 <__aeabi_dmul+0x1c6>
 8000836:	ea43 0306 	orr.w	r3, r3, r6
 800083a:	4770      	bx	lr
 800083c:	ea94 0f0c 	teq	r4, ip
 8000840:	ea0c 5513 	and.w	r5, ip, r3, lsr #20
 8000844:	bf18      	it	ne
 8000846:	ea95 0f0c 	teqne	r5, ip
 800084a:	d00c      	beq.n	8000866 <__aeabi_dmul+0x206>
 800084c:	ea50 0641 	orrs.w	r6, r0, r1, lsl #1
 8000850:	bf18      	it	ne
 8000852:	ea52 0643 	orrsne.w	r6, r2, r3, lsl #1
 8000856:	d1d1      	bne.n	80007fc <__aeabi_dmul+0x19c>
 8000858:	ea81 0103 	eor.w	r1, r1, r3
 800085c:	f001 4100 	and.w	r1, r1, #2147483648	; 0x80000000
 8000860:	f04f 0000 	mov.w	r0, #0
 8000864:	bd70      	pop	{r4, r5, r6, pc}
 8000866:	ea50 0641 	orrs.w	r6, r0, r1, lsl #1
 800086a:	bf06      	itte	eq
 800086c:	4610      	moveq	r0, r2
 800086e:	4619      	moveq	r1, r3
 8000870:	ea52 0643 	orrsne.w	r6, r2, r3, lsl #1
 8000874:	d019      	beq.n	80008aa <__aeabi_dmul+0x24a>
 8000876:	ea94 0f0c 	teq	r4, ip
 800087a:	d102      	bne.n	8000882 <__aeabi_dmul+0x222>
 800087c:	ea50 3601 	orrs.w	r6, r0, r1, lsl #12
 8000880:	d113      	bne.n	80008aa <__aeabi_dmul+0x24a>
 8000882:	ea95 0f0c 	teq	r5, ip
 8000886:	d105      	bne.n	8000894 <__aeabi_dmul+0x234>
 8000888:	ea52 3603 	orrs.w	r6, r2, r3, lsl #12
 800088c:	bf1c      	itt	ne
 800088e:	4610      	movne	r0, r2
 8000890:	4619      	movne	r1, r3
 8000892:	d10a      	bne.n	80008aa <__aeabi_dmul+0x24a>
 8000894:	ea81 0103 	eor.w	r1, r1, r3
 8000898:	f001 4100 	and.w	r1, r1, #2147483648	; 0x80000000
 800089c:	f041 41fe 	orr.w	r1, r1, #2130706432	; 0x7f000000
 80008a0:	f441 0170 	orr.w	r1, r1, #15728640	; 0xf00000
 80008a4:	f04f 0000 	mov.w	r0, #0
 80008a8:	bd70      	pop	{r4, r5, r6, pc}
 80008aa:	f041 41fe 	orr.w	r1, r1, #2130706432	; 0x7f000000
 80008ae:	f441 0178 	orr.w	r1, r1, #16252928	; 0xf80000
 80008b2:	bd70      	pop	{r4, r5, r6, pc}

080008b4 <__aeabi_ddiv>:
 80008b4:	b570      	push	{r4, r5, r6, lr}
 80008b6:	f04f 0cff 	mov.w	ip, #255	; 0xff
 80008ba:	f44c 6ce0 	orr.w	ip, ip, #1792	; 0x700
 80008be:	ea1c 5411 	ands.w	r4, ip, r1, lsr #20
 80008c2:	bf1d      	ittte	ne
 80008c4:	ea1c 5513 	andsne.w	r5, ip, r3, lsr #20
 80008c8:	ea94 0f0c 	teqne	r4, ip
 80008cc:	ea95 0f0c 	teqne	r5, ip
 80008d0:	f000 f8a7 	bleq	8000a22 <__aeabi_ddiv+0x16e>
 80008d4:	eba4 0405 	sub.w	r4, r4, r5
 80008d8:	ea81 0e03 	eor.w	lr, r1, r3
 80008dc:	ea52 3503 	orrs.w	r5, r2, r3, lsl #12
 80008e0:	ea4f 3101 	mov.w	r1, r1, lsl #12
 80008e4:	f000 8088 	beq.w	80009f8 <__aeabi_ddiv+0x144>
 80008e8:	ea4f 3303 	mov.w	r3, r3, lsl #12
 80008ec:	f04f 5580 	mov.w	r5, #268435456	; 0x10000000
 80008f0:	ea45 1313 	orr.w	r3, r5, r3, lsr #4
 80008f4:	ea43 6312 	orr.w	r3, r3, r2, lsr #24
 80008f8:	ea4f 2202 	mov.w	r2, r2, lsl #8
 80008fc:	ea45 1511 	orr.w	r5, r5, r1, lsr #4
 8000900:	ea45 6510 	orr.w	r5, r5, r0, lsr #24
 8000904:	ea4f 2600 	mov.w	r6, r0, lsl #8
 8000908:	f00e 4100 	and.w	r1, lr, #2147483648	; 0x80000000
 800090c:	429d      	cmp	r5, r3
 800090e:	bf08      	it	eq
 8000910:	4296      	cmpeq	r6, r2
 8000912:	f144 04fd 	adc.w	r4, r4, #253	; 0xfd
 8000916:	f504 7440 	add.w	r4, r4, #768	; 0x300
 800091a:	d202      	bcs.n	8000922 <__aeabi_ddiv+0x6e>
 800091c:	085b      	lsrs	r3, r3, #1
 800091e:	ea4f 0232 	mov.w	r2, r2, rrx
 8000922:	1ab6      	subs	r6, r6, r2
 8000924:	eb65 0503 	sbc.w	r5, r5, r3
 8000928:	085b      	lsrs	r3, r3, #1
 800092a:	ea4f 0232 	mov.w	r2, r2, rrx
 800092e:	f44f 1080 	mov.w	r0, #1048576	; 0x100000
 8000932:	f44f 2c00 	mov.w	ip, #524288	; 0x80000
 8000936:	ebb6 0e02 	subs.w	lr, r6, r2
 800093a:	eb75 0e03 	sbcs.w	lr, r5, r3
 800093e:	bf22      	ittt	cs
 8000940:	1ab6      	subcs	r6, r6, r2
 8000942:	4675      	movcs	r5, lr
 8000944:	ea40 000c 	orrcs.w	r0, r0, ip
 8000948:	085b      	lsrs	r3, r3, #1
 800094a:	ea4f 0232 	mov.w	r2, r2, rrx
 800094e:	ebb6 0e02 	subs.w	lr, r6, r2
 8000952:	eb75 0e03 	sbcs.w	lr, r5, r3
 8000956:	bf22      	ittt	cs
 8000958:	1ab6      	subcs	r6, r6, r2
 800095a:	4675      	movcs	r5, lr
 800095c:	ea40 005c 	orrcs.w	r0, r0, ip, lsr #1
 8000960:	085b      	lsrs	r3, r3, #1
 8000962:	ea4f 0232 	mov.w	r2, r2, rrx
 8000966:	ebb6 0e02 	subs.w	lr, r6, r2
 800096a:	eb75 0e03 	sbcs.w	lr, r5, r3
 800096e:	bf22      	ittt	cs
 8000970:	1ab6      	subcs	r6, r6, r2
 8000972:	4675      	movcs	r5, lr
 8000974:	ea40 009c 	orrcs.w	r0, r0, ip, lsr #2
 8000978:	085b      	lsrs	r3, r3, #1
 800097a:	ea4f 0232 	mov.w	r2, r2, rrx
 800097e:	ebb6 0e02 	subs.w	lr, r6, r2
 8000982:	eb75 0e03 	sbcs.w	lr, r5, r3
 8000986:	bf22      	ittt	cs
 8000988:	1ab6      	subcs	r6, r6, r2
 800098a:	4675      	movcs	r5, lr
 800098c:	ea40 00dc 	orrcs.w	r0, r0, ip, lsr #3
 8000990:	ea55 0e06 	orrs.w	lr, r5, r6
 8000994:	d018      	beq.n	80009c8 <__aeabi_ddiv+0x114>
 8000996:	ea4f 1505 	mov.w	r5, r5, lsl #4
 800099a:	ea45 7516 	orr.w	r5, r5, r6, lsr #28
 800099e:	ea4f 1606 	mov.w	r6, r6, lsl #4
 80009a2:	ea4f 03c3 	mov.w	r3, r3, lsl #3
 80009a6:	ea43 7352 	orr.w	r3, r3, r2, lsr #29
 80009aa:	ea4f 02c2 	mov.w	r2, r2, lsl #3
 80009ae:	ea5f 1c1c 	movs.w	ip, ip, lsr #4
 80009b2:	d1c0      	bne.n	8000936 <__aeabi_ddiv+0x82>
 80009b4:	f411 1f80 	tst.w	r1, #1048576	; 0x100000
 80009b8:	d10b      	bne.n	80009d2 <__aeabi_ddiv+0x11e>
 80009ba:	ea41 0100 	orr.w	r1, r1, r0
 80009be:	f04f 0000 	mov.w	r0, #0
 80009c2:	f04f 4c00 	mov.w	ip, #2147483648	; 0x80000000
 80009c6:	e7b6      	b.n	8000936 <__aeabi_ddiv+0x82>
 80009c8:	f411 1f80 	tst.w	r1, #1048576	; 0x100000
 80009cc:	bf04      	itt	eq
 80009ce:	4301      	orreq	r1, r0
 80009d0:	2000      	moveq	r0, #0
 80009d2:	f1b4 0cfd 	subs.w	ip, r4, #253	; 0xfd
 80009d6:	bf88      	it	hi
 80009d8:	f5bc 6fe0 	cmphi.w	ip, #1792	; 0x700
 80009dc:	f63f aeaf 	bhi.w	800073e <__aeabi_dmul+0xde>
 80009e0:	ebb5 0c03 	subs.w	ip, r5, r3
 80009e4:	bf04      	itt	eq
 80009e6:	ebb6 0c02 	subseq.w	ip, r6, r2
 80009ea:	ea5f 0c50 	movseq.w	ip, r0, lsr #1
 80009ee:	f150 0000 	adcs.w	r0, r0, #0
 80009f2:	eb41 5104 	adc.w	r1, r1, r4, lsl #20
 80009f6:	bd70      	pop	{r4, r5, r6, pc}
 80009f8:	f00e 4e00 	and.w	lr, lr, #2147483648	; 0x80000000
 80009fc:	ea4e 3111 	orr.w	r1, lr, r1, lsr #12
 8000a00:	eb14 045c 	adds.w	r4, r4, ip, lsr #1
 8000a04:	bfc2      	ittt	gt
 8000a06:	ebd4 050c 	rsbsgt	r5, r4, ip
 8000a0a:	ea41 5104 	orrgt.w	r1, r1, r4, lsl #20
 8000a0e:	bd70      	popgt	{r4, r5, r6, pc}
 8000a10:	f441 1180 	orr.w	r1, r1, #1048576	; 0x100000
 8000a14:	f04f 0e00 	mov.w	lr, #0
 8000a18:	3c01      	subs	r4, #1
 8000a1a:	e690      	b.n	800073e <__aeabi_dmul+0xde>
 8000a1c:	ea45 0e06 	orr.w	lr, r5, r6
 8000a20:	e68d      	b.n	800073e <__aeabi_dmul+0xde>
 8000a22:	ea0c 5513 	and.w	r5, ip, r3, lsr #20
 8000a26:	ea94 0f0c 	teq	r4, ip
 8000a2a:	bf08      	it	eq
 8000a2c:	ea95 0f0c 	teqeq	r5, ip
 8000a30:	f43f af3b 	beq.w	80008aa <__aeabi_dmul+0x24a>
 8000a34:	ea94 0f0c 	teq	r4, ip
 8000a38:	d10a      	bne.n	8000a50 <__aeabi_ddiv+0x19c>
 8000a3a:	ea50 3401 	orrs.w	r4, r0, r1, lsl #12
 8000a3e:	f47f af34 	bne.w	80008aa <__aeabi_dmul+0x24a>
 8000a42:	ea95 0f0c 	teq	r5, ip
 8000a46:	f47f af25 	bne.w	8000894 <__aeabi_dmul+0x234>
 8000a4a:	4610      	mov	r0, r2
 8000a4c:	4619      	mov	r1, r3
 8000a4e:	e72c      	b.n	80008aa <__aeabi_dmul+0x24a>
 8000a50:	ea95 0f0c 	teq	r5, ip
 8000a54:	d106      	bne.n	8000a64 <__aeabi_ddiv+0x1b0>
 8000a56:	ea52 3503 	orrs.w	r5, r2, r3, lsl #12
 8000a5a:	f43f aefd 	beq.w	8000858 <__aeabi_dmul+0x1f8>
 8000a5e:	4610      	mov	r0, r2
 8000a60:	4619      	mov	r1, r3
 8000a62:	e722      	b.n	80008aa <__aeabi_dmul+0x24a>
 8000a64:	ea50 0641 	orrs.w	r6, r0, r1, lsl #1
 8000a68:	bf18      	it	ne
 8000a6a:	ea52 0643 	orrsne.w	r6, r2, r3, lsl #1
 8000a6e:	f47f aec5 	bne.w	80007fc <__aeabi_dmul+0x19c>
 8000a72:	ea50 0441 	orrs.w	r4, r0, r1, lsl #1
 8000a76:	f47f af0d 	bne.w	8000894 <__aeabi_dmul+0x234>
 8000a7a:	ea52 0543 	orrs.w	r5, r2, r3, lsl #1
 8000a7e:	f47f aeeb 	bne.w	8000858 <__aeabi_dmul+0x1f8>
 8000a82:	e712      	b.n	80008aa <__aeabi_dmul+0x24a>

08000a84 <__gedf2>:
 8000a84:	f04f 3cff 	mov.w	ip, #4294967295
 8000a88:	e006      	b.n	8000a98 <__cmpdf2+0x4>
 8000a8a:	bf00      	nop

08000a8c <__ledf2>:
 8000a8c:	f04f 0c01 	mov.w	ip, #1
 8000a90:	e002      	b.n	8000a98 <__cmpdf2+0x4>
 8000a92:	bf00      	nop

08000a94 <__cmpdf2>:
 8000a94:	f04f 0c01 	mov.w	ip, #1
 8000a98:	f84d cd04 	str.w	ip, [sp, #-4]!
 8000a9c:	ea4f 0c41 	mov.w	ip, r1, lsl #1
 8000aa0:	ea7f 5c6c 	mvns.w	ip, ip, asr #21
 8000aa4:	ea4f 0c43 	mov.w	ip, r3, lsl #1
 8000aa8:	bf18      	it	ne
 8000aaa:	ea7f 5c6c 	mvnsne.w	ip, ip, asr #21
 8000aae:	d01b      	beq.n	8000ae8 <__cmpdf2+0x54>
 8000ab0:	b001      	add	sp, #4
 8000ab2:	ea50 0c41 	orrs.w	ip, r0, r1, lsl #1
 8000ab6:	bf0c      	ite	eq
 8000ab8:	ea52 0c43 	orrseq.w	ip, r2, r3, lsl #1
 8000abc:	ea91 0f03 	teqne	r1, r3
 8000ac0:	bf02      	ittt	eq
 8000ac2:	ea90 0f02 	teqeq	r0, r2
 8000ac6:	2000      	moveq	r0, #0
 8000ac8:	4770      	bxeq	lr
 8000aca:	f110 0f00 	cmn.w	r0, #0
 8000ace:	ea91 0f03 	teq	r1, r3
 8000ad2:	bf58      	it	pl
 8000ad4:	4299      	cmppl	r1, r3
 8000ad6:	bf08      	it	eq
 8000ad8:	4290      	cmpeq	r0, r2
 8000ada:	bf2c      	ite	cs
 8000adc:	17d8      	asrcs	r0, r3, #31
 8000ade:	ea6f 70e3 	mvncc.w	r0, r3, asr #31
 8000ae2:	f040 0001 	orr.w	r0, r0, #1
 8000ae6:	4770      	bx	lr
 8000ae8:	ea4f 0c41 	mov.w	ip, r1, lsl #1
 8000aec:	ea7f 5c6c 	mvns.w	ip, ip, asr #21
 8000af0:	d102      	bne.n	8000af8 <__cmpdf2+0x64>
 8000af2:	ea50 3c01 	orrs.w	ip, r0, r1, lsl #12
 8000af6:	d107      	bne.n	8000b08 <__cmpdf2+0x74>
 8000af8:	ea4f 0c43 	mov.w	ip, r3, lsl #1
 8000afc:	ea7f 5c6c 	mvns.w	ip, ip, asr #21
 8000b00:	d1d6      	bne.n	8000ab0 <__cmpdf2+0x1c>
 8000b02:	ea52 3c03 	orrs.w	ip, r2, r3, lsl #12
 8000b06:	d0d3      	beq.n	8000ab0 <__cmpdf2+0x1c>
 8000b08:	f85d 0b04 	ldr.w	r0, [sp], #4
 8000b0c:	4770      	bx	lr
 8000b0e:	bf00      	nop

08000b10 <__aeabi_cdrcmple>:
 8000b10:	4684      	mov	ip, r0
 8000b12:	4610      	mov	r0, r2
 8000b14:	4662      	mov	r2, ip
 8000b16:	468c      	mov	ip, r1
 8000b18:	4619      	mov	r1, r3
 8000b1a:	4663      	mov	r3, ip
 8000b1c:	e000      	b.n	8000b20 <__aeabi_cdcmpeq>
 8000b1e:	bf00      	nop

08000b20 <__aeabi_cdcmpeq>:
 8000b20:	b501      	push	{r0, lr}
 8000b22:	f7ff ffb7 	bl	8000a94 <__cmpdf2>
 8000b26:	2800      	cmp	r0, #0
 8000b28:	bf48      	it	mi
 8000b2a:	f110 0f00 	cmnmi.w	r0, #0
 8000b2e:	bd01      	pop	{r0, pc}

08000b30 <__aeabi_dcmpeq>:
 8000b30:	f84d ed08 	str.w	lr, [sp, #-8]!
 8000b34:	f7ff fff4 	bl	8000b20 <__aeabi_cdcmpeq>
 8000b38:	bf0c      	ite	eq
 8000b3a:	2001      	moveq	r0, #1
 8000b3c:	2000      	movne	r0, #0
 8000b3e:	f85d fb08 	ldr.w	pc, [sp], #8
 8000b42:	bf00      	nop

08000b44 <__aeabi_dcmplt>:
 8000b44:	f84d ed08 	str.w	lr, [sp, #-8]!
 8000b48:	f7ff ffea 	bl	8000b20 <__aeabi_cdcmpeq>
 8000b4c:	bf34      	ite	cc
 8000b4e:	2001      	movcc	r0, #1
 8000b50:	2000      	movcs	r0, #0
 8000b52:	f85d fb08 	ldr.w	pc, [sp], #8
 8000b56:	bf00      	nop

08000b58 <__aeabi_dcmple>:
 8000b58:	f84d ed08 	str.w	lr, [sp, #-8]!
 8000b5c:	f7ff ffe0 	bl	8000b20 <__aeabi_cdcmpeq>
 8000b60:	bf94      	ite	ls
 8000b62:	2001      	movls	r0, #1
 8000b64:	2000      	movhi	r0, #0
 8000b66:	f85d fb08 	ldr.w	pc, [sp], #8
 8000b6a:	bf00      	nop

08000b6c <__aeabi_dcmpge>:
 8000b6c:	f84d ed08 	str.w	lr, [sp, #-8]!
 8000b70:	f7ff ffce 	bl	8000b10 <__aeabi_cdrcmple>
 8000b74:	bf94      	ite	ls
 8000b76:	2001      	movls	r0, #1
 8000b78:	2000      	movhi	r0, #0
 8000b7a:	f85d fb08 	ldr.w	pc, [sp], #8
 8000b7e:	bf00      	nop

08000b80 <__aeabi_dcmpgt>:
 8000b80:	f84d ed08 	str.w	lr, [sp, #-8]!
 8000b84:	f7ff ffc4 	bl	8000b10 <__aeabi_cdrcmple>
 8000b88:	bf34      	ite	cc
 8000b8a:	2001      	movcc	r0, #1
 8000b8c:	2000      	movcs	r0, #0
 8000b8e:	f85d fb08 	ldr.w	pc, [sp], #8
 8000b92:	bf00      	nop

08000b94 <__aeabi_dcmpun>:
 8000b94:	ea4f 0c41 	mov.w	ip, r1, lsl #1
 8000b98:	ea7f 5c6c 	mvns.w	ip, ip, asr #21
 8000b9c:	d102      	bne.n	8000ba4 <__aeabi_dcmpun+0x10>
 8000b9e:	ea50 3c01 	orrs.w	ip, r0, r1, lsl #12
 8000ba2:	d10a      	bne.n	8000bba <__aeabi_dcmpun+0x26>
 8000ba4:	ea4f 0c43 	mov.w	ip, r3, lsl #1
 8000ba8:	ea7f 5c6c 	mvns.w	ip, ip, asr #21
 8000bac:	d102      	bne.n	8000bb4 <__aeabi_dcmpun+0x20>
 8000bae:	ea52 3c03 	orrs.w	ip, r2, r3, lsl #12
 8000bb2:	d102      	bne.n	8000bba <__aeabi_dcmpun+0x26>
 8000bb4:	f04f 0000 	mov.w	r0, #0
 8000bb8:	4770      	bx	lr
 8000bba:	f04f 0001 	mov.w	r0, #1
 8000bbe:	4770      	bx	lr

08000bc0 <__aeabi_d2iz>:
 8000bc0:	ea4f 0241 	mov.w	r2, r1, lsl #1
 8000bc4:	f512 1200 	adds.w	r2, r2, #2097152	; 0x200000
 8000bc8:	d215      	bcs.n	8000bf6 <__aeabi_d2iz+0x36>
 8000bca:	d511      	bpl.n	8000bf0 <__aeabi_d2iz+0x30>
 8000bcc:	f46f 7378 	mvn.w	r3, #992	; 0x3e0
 8000bd0:	ebb3 5262 	subs.w	r2, r3, r2, asr #21
 8000bd4:	d912      	bls.n	8000bfc <__aeabi_d2iz+0x3c>
 8000bd6:	ea4f 23c1 	mov.w	r3, r1, lsl #11
 8000bda:	f043 4300 	orr.w	r3, r3, #2147483648	; 0x80000000
 8000bde:	ea43 5350 	orr.w	r3, r3, r0, lsr #21
 8000be2:	f011 4f00 	tst.w	r1, #2147483648	; 0x80000000
 8000be6:	fa23 f002 	lsr.w	r0, r3, r2
 8000bea:	bf18      	it	ne
 8000bec:	4240      	negne	r0, r0
 8000bee:	4770      	bx	lr
 8000bf0:	f04f 0000 	mov.w	r0, #0
 8000bf4:	4770      	bx	lr
 8000bf6:	ea50 3001 	orrs.w	r0, r0, r1, lsl #12
 8000bfa:	d105      	bne.n	8000c08 <__aeabi_d2iz+0x48>
 8000bfc:	f011 4000 	ands.w	r0, r1, #2147483648	; 0x80000000
 8000c00:	bf08      	it	eq
 8000c02:	f06f 4000 	mvneq.w	r0, #2147483648	; 0x80000000
 8000c06:	4770      	bx	lr
 8000c08:	f04f 0000 	mov.w	r0, #0
 8000c0c:	4770      	bx	lr
 8000c0e:	bf00      	nop

08000c10 <__aeabi_d2uiz>:
 8000c10:	004a      	lsls	r2, r1, #1
 8000c12:	d211      	bcs.n	8000c38 <__aeabi_d2uiz+0x28>
 8000c14:	f512 1200 	adds.w	r2, r2, #2097152	; 0x200000
 8000c18:	d211      	bcs.n	8000c3e <__aeabi_d2uiz+0x2e>
 8000c1a:	d50d      	bpl.n	8000c38 <__aeabi_d2uiz+0x28>
 8000c1c:	f46f 7378 	mvn.w	r3, #992	; 0x3e0
 8000c20:	ebb3 5262 	subs.w	r2, r3, r2, asr #21
 8000c24:	d40e      	bmi.n	8000c44 <__aeabi_d2uiz+0x34>
 8000c26:	ea4f 23c1 	mov.w	r3, r1, lsl #11
 8000c2a:	f043 4300 	orr.w	r3, r3, #2147483648	; 0x80000000
 8000c2e:	ea43 5350 	orr.w	r3, r3, r0, lsr #21
 8000c32:	fa23 f002 	lsr.w	r0, r3, r2
 8000c36:	4770      	bx	lr
 8000c38:	f04f 0000 	mov.w	r0, #0
 8000c3c:	4770      	bx	lr
 8000c3e:	ea50 3001 	orrs.w	r0, r0, r1, lsl #12
 8000c42:	d102      	bne.n	8000c4a <__aeabi_d2uiz+0x3a>
 8000c44:	f04f 30ff 	mov.w	r0, #4294967295
 8000c48:	4770      	bx	lr
 8000c4a:	f04f 0000 	mov.w	r0, #0
 8000c4e:	4770      	bx	lr

08000c50 <__aeabi_d2f>:
 8000c50:	ea4f 0241 	mov.w	r2, r1, lsl #1
 8000c54:	f1b2 43e0 	subs.w	r3, r2, #1879048192	; 0x70000000
 8000c58:	bf24      	itt	cs
 8000c5a:	f5b3 1c00 	subscs.w	ip, r3, #2097152	; 0x200000
 8000c5e:	f1dc 5cfe 	rsbscs	ip, ip, #532676608	; 0x1fc00000
 8000c62:	d90d      	bls.n	8000c80 <__aeabi_d2f+0x30>
 8000c64:	f001 4c00 	and.w	ip, r1, #2147483648	; 0x80000000
 8000c68:	ea4f 02c0 	mov.w	r2, r0, lsl #3
 8000c6c:	ea4c 7050 	orr.w	r0, ip, r0, lsr #29
 8000c70:	f1b2 4f00 	cmp.w	r2, #2147483648	; 0x80000000
 8000c74:	eb40 0083 	adc.w	r0, r0, r3, lsl #2
 8000c78:	bf08      	it	eq
 8000c7a:	f020 0001 	biceq.w	r0, r0, #1
 8000c7e:	4770      	bx	lr
 8000c80:	f011 4f80 	tst.w	r1, #1073741824	; 0x40000000
 8000c84:	d121      	bne.n	8000cca <__aeabi_d2f+0x7a>
 8000c86:	f113 7238 	adds.w	r2, r3, #48234496	; 0x2e00000
 8000c8a:	bfbc      	itt	lt
 8000c8c:	f001 4000 	andlt.w	r0, r1, #2147483648	; 0x80000000
 8000c90:	4770      	bxlt	lr
 8000c92:	f441 1180 	orr.w	r1, r1, #1048576	; 0x100000
 8000c96:	ea4f 5252 	mov.w	r2, r2, lsr #21
 8000c9a:	f1c2 0218 	rsb	r2, r2, #24
 8000c9e:	f1c2 0c20 	rsb	ip, r2, #32
 8000ca2:	fa10 f30c 	lsls.w	r3, r0, ip
 8000ca6:	fa20 f002 	lsr.w	r0, r0, r2
 8000caa:	bf18      	it	ne
 8000cac:	f040 0001 	orrne.w	r0, r0, #1
 8000cb0:	ea4f 23c1 	mov.w	r3, r1, lsl #11
 8000cb4:	ea4f 23d3 	mov.w	r3, r3, lsr #11
 8000cb8:	fa03 fc0c 	lsl.w	ip, r3, ip
 8000cbc:	ea40 000c 	orr.w	r0, r0, ip
 8000cc0:	fa23 f302 	lsr.w	r3, r3, r2
 8000cc4:	ea4f 0343 	mov.w	r3, r3, lsl #1
 8000cc8:	e7cc      	b.n	8000c64 <__aeabi_d2f+0x14>
 8000cca:	ea7f 5362 	mvns.w	r3, r2, asr #21
 8000cce:	d107      	bne.n	8000ce0 <__aeabi_d2f+0x90>
 8000cd0:	ea50 3301 	orrs.w	r3, r0, r1, lsl #12
 8000cd4:	bf1e      	ittt	ne
 8000cd6:	f04f 40fe 	movne.w	r0, #2130706432	; 0x7f000000
 8000cda:	f440 0040 	orrne.w	r0, r0, #12582912	; 0xc00000
 8000cde:	4770      	bxne	lr
 8000ce0:	f001 4000 	and.w	r0, r1, #2147483648	; 0x80000000
 8000ce4:	f040 40fe 	orr.w	r0, r0, #2130706432	; 0x7f000000
 8000ce8:	f440 0000 	orr.w	r0, r0, #8388608	; 0x800000
 8000cec:	4770      	bx	lr
 8000cee:	bf00      	nop

08000cf0 <delay_1ms>:
#include <stdio.h>

#include "delay.h"  //include declaration header file

//This function will loop n times
void delay_1ms(uint32_t n){
 8000cf0:	b480      	push	{r7}
 8000cf2:	b087      	sub	sp, #28
 8000cf4:	af00      	add	r7, sp, #0
 8000cf6:	6078      	str	r0, [r7, #4]
//Loop N times
	for(int i = 0; i < n; i++){
 8000cf8:	2300      	movs	r3, #0
 8000cfa:	617b      	str	r3, [r7, #20]
 8000cfc:	e01c      	b.n	8000d38 <delay_1ms+0x48>
	//Load ticks to make 1ms: 16000
		//* this tells compiler to write to memory, it like [r1] in assembly
		*(STK_LOAD) = 16000;
 8000cfe:	4b13      	ldr	r3, [pc, #76]	; (8000d4c <delay_1ms+0x5c>)
 8000d00:	f44f 527a 	mov.w	r2, #16000	; 0x3e80
 8000d04:	601a      	str	r2, [r3, #0]
		//Start counter
		*(STK_CTRL) = (1<<EN) | (1<<CLKSOURCE);
 8000d06:	4b12      	ldr	r3, [pc, #72]	; (8000d50 <delay_1ms+0x60>)
 8000d08:	2205      	movs	r2, #5
 8000d0a:	601a      	str	r2, [r3, #0]
	//Check the flag
		//if its 1, end
		// else continue counting

		uint32_t currFlag = 0;
 8000d0c:	2300      	movs	r3, #0
 8000d0e:	60fb      	str	r3, [r7, #12]
		uint8_t done = 0;
 8000d10:	2300      	movs	r3, #0
 8000d12:	74fb      	strb	r3, [r7, #19]
		while (done == 0){
 8000d14:	e00a      	b.n	8000d2c <delay_1ms+0x3c>
			currFlag = *(STK_CTRL) & (1<<COUNTFLAG);
 8000d16:	4b0e      	ldr	r3, [pc, #56]	; (8000d50 <delay_1ms+0x60>)
 8000d18:	681b      	ldr	r3, [r3, #0]
 8000d1a:	f403 3380 	and.w	r3, r3, #65536	; 0x10000
 8000d1e:	60fb      	str	r3, [r7, #12]
			if(currFlag == (1<<COUNTFLAG)){
 8000d20:	68fb      	ldr	r3, [r7, #12]
 8000d22:	f5b3 3f80 	cmp.w	r3, #65536	; 0x10000
 8000d26:	d101      	bne.n	8000d2c <delay_1ms+0x3c>
				done = 1;
 8000d28:	2301      	movs	r3, #1
 8000d2a:	74fb      	strb	r3, [r7, #19]
		while (done == 0){
 8000d2c:	7cfb      	ldrb	r3, [r7, #19]
 8000d2e:	2b00      	cmp	r3, #0
 8000d30:	d0f1      	beq.n	8000d16 <delay_1ms+0x26>
	for(int i = 0; i < n; i++){
 8000d32:	697b      	ldr	r3, [r7, #20]
 8000d34:	3301      	adds	r3, #1
 8000d36:	617b      	str	r3, [r7, #20]
 8000d38:	697a      	ldr	r2, [r7, #20]
 8000d3a:	687b      	ldr	r3, [r7, #4]
 8000d3c:	429a      	cmp	r2, r3
 8000d3e:	d3de      	bcc.n	8000cfe <delay_1ms+0xe>
			}
		}
	}
}
 8000d40:	bf00      	nop
 8000d42:	371c      	adds	r7, #28
 8000d44:	46bd      	mov	sp, r7
 8000d46:	f85d 7b04 	ldr.w	r7, [sp], #4
 8000d4a:	4770      	bx	lr
 8000d4c:	e000e014 	.word	0xe000e014
 8000d50:	e000e010 	.word	0xe000e010

08000d54 <delay_1us>:

//This function will loop n times
void delay_1us(uint32_t n){
 8000d54:	b480      	push	{r7}
 8000d56:	b087      	sub	sp, #28
 8000d58:	af00      	add	r7, sp, #0
 8000d5a:	6078      	str	r0, [r7, #4]
//Loop N times
	for(int i = 0; i < n; i++){
 8000d5c:	2300      	movs	r3, #0
 8000d5e:	617b      	str	r3, [r7, #20]
 8000d60:	e01b      	b.n	8000d9a <delay_1us+0x46>
	//Load ticks to make 1ms: 16000
		//* this tells compiler to write to memory, it like [r1] in assembly
		*(STK_LOAD) = 16;
 8000d62:	4b13      	ldr	r3, [pc, #76]	; (8000db0 <delay_1us+0x5c>)
 8000d64:	2210      	movs	r2, #16
 8000d66:	601a      	str	r2, [r3, #0]
		//Start counter
		*(STK_CTRL) = (1<<EN) | (1<<CLKSOURCE);
 8000d68:	4b12      	ldr	r3, [pc, #72]	; (8000db4 <delay_1us+0x60>)
 8000d6a:	2205      	movs	r2, #5
 8000d6c:	601a      	str	r2, [r3, #0]
	//Check the flag
		//if its 1, end
		// else continue counting

		uint32_t currFlag = 0;
 8000d6e:	2300      	movs	r3, #0
 8000d70:	60fb      	str	r3, [r7, #12]
		uint8_t done = 0;
 8000d72:	2300      	movs	r3, #0
 8000d74:	74fb      	strb	r3, [r7, #19]
		while (done == 0){
 8000d76:	e00a      	b.n	8000d8e <delay_1us+0x3a>
			currFlag = *(STK_CTRL) & (1<<COUNTFLAG);
 8000d78:	4b0e      	ldr	r3, [pc, #56]	; (8000db4 <delay_1us+0x60>)
 8000d7a:	681b      	ldr	r3, [r3, #0]
 8000d7c:	f403 3380 	and.w	r3, r3, #65536	; 0x10000
 8000d80:	60fb      	str	r3, [r7, #12]
			if(currFlag == (1<<COUNTFLAG)){
 8000d82:	68fb      	ldr	r3, [r7, #12]
 8000d84:	f5b3 3f80 	cmp.w	r3, #65536	; 0x10000
 8000d88:	d101      	bne.n	8000d8e <delay_1us+0x3a>
				done = 1;
 8000d8a:	2301      	movs	r3, #1
 8000d8c:	74fb      	strb	r3, [r7, #19]
		while (done == 0){
 8000d8e:	7cfb      	ldrb	r3, [r7, #19]
 8000d90:	2b00      	cmp	r3, #0
 8000d92:	d0f1      	beq.n	8000d78 <delay_1us+0x24>
	for(int i = 0; i < n; i++){
 8000d94:	697b      	ldr	r3, [r7, #20]
 8000d96:	3301      	adds	r3, #1
 8000d98:	617b      	str	r3, [r7, #20]
 8000d9a:	697a      	ldr	r2, [r7, #20]
 8000d9c:	687b      	ldr	r3, [r7, #4]
 8000d9e:	429a      	cmp	r2, r3
 8000da0:	d3df      	bcc.n	8000d62 <delay_1us+0xe>
			}
		}
	}
}
 8000da2:	bf00      	nop
 8000da4:	371c      	adds	r7, #28
 8000da6:	46bd      	mov	sp, r7
 8000da8:	f85d 7b04 	ldr.w	r7, [sp], #4
 8000dac:	4770      	bx	lr
 8000dae:	bf00      	nop
 8000db0:	e000e014 	.word	0xe000e014
 8000db4:	e000e010 	.word	0xe000e010

08000db8 <key_init>:

static volatile GPIO* GPIO_C = 0x40020800;
static volatile int GPIOC_EN = 2;
static volatile int key = 0;

void key_init() {	//Init keypad
 8000db8:	b480      	push	{r7}
 8000dba:	af00      	add	r7, sp, #0
	//Enable GPIOC with RCC
	*(RCC_AHB1ENR ) = *(RCC_AHB1ENR ) | (1 << GPIOC_EN);
 8000dbc:	4918      	ldr	r1, [pc, #96]	; (8000e20 <key_init+0x68>)
 8000dbe:	4b18      	ldr	r3, [pc, #96]	; (8000e20 <key_init+0x68>)
 8000dc0:	681b      	ldr	r3, [r3, #0]
 8000dc2:	4a18      	ldr	r2, [pc, #96]	; (8000e24 <key_init+0x6c>)
 8000dc4:	6812      	ldr	r2, [r2, #0]
 8000dc6:	2001      	movs	r0, #1
 8000dc8:	fa00 f202 	lsl.w	r2, r0, r2
 8000dcc:	4313      	orrs	r3, r2
 8000dce:	600b      	str	r3, [r1, #0]
	//Row pins 4-7 to input
	//Col pins 0-3 to output
	GPIO_C->MODER &= ~0x0000FFFF;
 8000dd0:	4b15      	ldr	r3, [pc, #84]	; (8000e28 <key_init+0x70>)
 8000dd2:	681a      	ldr	r2, [r3, #0]
 8000dd4:	4b14      	ldr	r3, [pc, #80]	; (8000e28 <key_init+0x70>)
 8000dd6:	681b      	ldr	r3, [r3, #0]
 8000dd8:	681b      	ldr	r3, [r3, #0]
 8000dda:	0c1b      	lsrs	r3, r3, #16
 8000ddc:	041b      	lsls	r3, r3, #16
 8000dde:	6013      	str	r3, [r2, #0]
	GPIO_C->MODER |= 0x00000055;
 8000de0:	4b11      	ldr	r3, [pc, #68]	; (8000e28 <key_init+0x70>)
 8000de2:	681b      	ldr	r3, [r3, #0]
 8000de4:	4a10      	ldr	r2, [pc, #64]	; (8000e28 <key_init+0x70>)
 8000de6:	6812      	ldr	r2, [r2, #0]
 8000de8:	6812      	ldr	r2, [r2, #0]
 8000dea:	f042 0255 	orr.w	r2, r2, #85	; 0x55
 8000dee:	601a      	str	r2, [r3, #0]
	//PUPDR to pull up
	GPIO_C->PUPDR &= ~0x0000FFFF;
 8000df0:	4b0d      	ldr	r3, [pc, #52]	; (8000e28 <key_init+0x70>)
 8000df2:	681a      	ldr	r2, [r3, #0]
 8000df4:	4b0c      	ldr	r3, [pc, #48]	; (8000e28 <key_init+0x70>)
 8000df6:	681b      	ldr	r3, [r3, #0]
 8000df8:	68db      	ldr	r3, [r3, #12]
 8000dfa:	0c1b      	lsrs	r3, r3, #16
 8000dfc:	041b      	lsls	r3, r3, #16
 8000dfe:	60d3      	str	r3, [r2, #12]
	GPIO_C->PUPDR |= 0x00005555;
 8000e00:	4b09      	ldr	r3, [pc, #36]	; (8000e28 <key_init+0x70>)
 8000e02:	681a      	ldr	r2, [r3, #0]
 8000e04:	4b08      	ldr	r3, [pc, #32]	; (8000e28 <key_init+0x70>)
 8000e06:	681b      	ldr	r3, [r3, #0]
 8000e08:	68db      	ldr	r3, [r3, #12]
 8000e0a:	f443 43aa 	orr.w	r3, r3, #21760	; 0x5500
 8000e0e:	f043 0355 	orr.w	r3, r3, #85	; 0x55
 8000e12:	60d3      	str	r3, [r2, #12]
}
 8000e14:	bf00      	nop
 8000e16:	46bd      	mov	sp, r7
 8000e18:	f85d 7b04 	ldr.w	r7, [sp], #4
 8000e1c:	4770      	bx	lr
 8000e1e:	bf00      	nop
 8000e20:	40023830 	.word	0x40023830
 8000e24:	20000004 	.word	0x20000004
 8000e28:	20000000 	.word	0x20000000

08000e2c <key_getkey>:

int key_getkey() {	//Returns the value of the pressed key (1-16)
 8000e2c:	b580      	push	{r7, lr}
 8000e2e:	b082      	sub	sp, #8
 8000e30:	af00      	add	r7, sp, #0
	int input = 0;
 8000e32:	2300      	movs	r3, #0
 8000e34:	607b      	str	r3, [r7, #4]
	key = 0;
 8000e36:	4b0f      	ldr	r3, [pc, #60]	; (8000e74 <key_getkey+0x48>)
 8000e38:	2200      	movs	r2, #0
 8000e3a:	601a      	str	r2, [r3, #0]

	while (key == 0) { //Checks if a key is pressed
 8000e3c:	e004      	b.n	8000e48 <key_getkey+0x1c>
		key = key_getkey_noblock();
 8000e3e:	f000 f81b 	bl	8000e78 <key_getkey_noblock>
 8000e42:	4602      	mov	r2, r0
 8000e44:	4b0b      	ldr	r3, [pc, #44]	; (8000e74 <key_getkey+0x48>)
 8000e46:	601a      	str	r2, [r3, #0]
	while (key == 0) { //Checks if a key is pressed
 8000e48:	4b0a      	ldr	r3, [pc, #40]	; (8000e74 <key_getkey+0x48>)
 8000e4a:	681b      	ldr	r3, [r3, #0]
 8000e4c:	2b00      	cmp	r3, #0
 8000e4e:	d0f6      	beq.n	8000e3e <key_getkey+0x12>
	}
	input = key; //Makes copy of key
 8000e50:	4b08      	ldr	r3, [pc, #32]	; (8000e74 <key_getkey+0x48>)
 8000e52:	681b      	ldr	r3, [r3, #0]
 8000e54:	607b      	str	r3, [r7, #4]
	while (key != 0) { //Waits until key is released making it on pull up config
 8000e56:	e004      	b.n	8000e62 <key_getkey+0x36>
		key = key_getkey_noblock();
 8000e58:	f000 f80e 	bl	8000e78 <key_getkey_noblock>
 8000e5c:	4602      	mov	r2, r0
 8000e5e:	4b05      	ldr	r3, [pc, #20]	; (8000e74 <key_getkey+0x48>)
 8000e60:	601a      	str	r2, [r3, #0]
	while (key != 0) { //Waits until key is released making it on pull up config
 8000e62:	4b04      	ldr	r3, [pc, #16]	; (8000e74 <key_getkey+0x48>)
 8000e64:	681b      	ldr	r3, [r3, #0]
 8000e66:	2b00      	cmp	r3, #0
 8000e68:	d1f6      	bne.n	8000e58 <key_getkey+0x2c>
	}
	return input;
 8000e6a:	687b      	ldr	r3, [r7, #4]
}
 8000e6c:	4618      	mov	r0, r3
 8000e6e:	3708      	adds	r7, #8
 8000e70:	46bd      	mov	sp, r7
 8000e72:	bd80      	pop	{r7, pc}
 8000e74:	2000024c 	.word	0x2000024c

08000e78 <key_getkey_noblock>:

int key_getkey_noblock() {	//Checks if a key is pressed
 8000e78:	b5b0      	push	{r4, r5, r7, lr}
 8000e7a:	b094      	sub	sp, #80	; 0x50
 8000e7c:	af00      	add	r7, sp, #0
	int rowMap[] = { 0, 0, 4, 0, 8, 0, 0, 0, 12 };
 8000e7e:	4b31      	ldr	r3, [pc, #196]	; (8000f44 <key_getkey_noblock+0xcc>)
 8000e80:	f107 0424 	add.w	r4, r7, #36	; 0x24
 8000e84:	461d      	mov	r5, r3
 8000e86:	cd0f      	ldmia	r5!, {r0, r1, r2, r3}
 8000e88:	c40f      	stmia	r4!, {r0, r1, r2, r3}
 8000e8a:	cd0f      	ldmia	r5!, {r0, r1, r2, r3}
 8000e8c:	c40f      	stmia	r4!, {r0, r1, r2, r3}
 8000e8e:	682b      	ldr	r3, [r5, #0]
 8000e90:	6023      	str	r3, [r4, #0]
	int colMap[] = { 0, 1, 2, 0, 3, 0, 0, 0, 4 };
 8000e92:	4b2d      	ldr	r3, [pc, #180]	; (8000f48 <key_getkey_noblock+0xd0>)
 8000e94:	463c      	mov	r4, r7
 8000e96:	461d      	mov	r5, r3
 8000e98:	cd0f      	ldmia	r5!, {r0, r1, r2, r3}
 8000e9a:	c40f      	stmia	r4!, {r0, r1, r2, r3}
 8000e9c:	cd0f      	ldmia	r5!, {r0, r1, r2, r3}
 8000e9e:	c40f      	stmia	r4!, {r0, r1, r2, r3}
 8000ea0:	682b      	ldr	r3, [r5, #0]
 8000ea2:	6023      	str	r3, [r4, #0]
	int row = (0xF & (~(GPIO_C->IDR & 0x000000F0) >> 4));
 8000ea4:	4b29      	ldr	r3, [pc, #164]	; (8000f4c <key_getkey_noblock+0xd4>)
 8000ea6:	681b      	ldr	r3, [r3, #0]
 8000ea8:	691b      	ldr	r3, [r3, #16]
 8000eaa:	f003 03f0 	and.w	r3, r3, #240	; 0xf0
 8000eae:	43db      	mvns	r3, r3
 8000eb0:	091b      	lsrs	r3, r3, #4
 8000eb2:	f003 030f 	and.w	r3, r3, #15
 8000eb6:	64fb      	str	r3, [r7, #76]	; 0x4c

	if (row == 0b0000) {	//Checks which row the pressed key if from
 8000eb8:	6cfb      	ldr	r3, [r7, #76]	; 0x4c
 8000eba:	2b00      	cmp	r3, #0
 8000ebc:	d101      	bne.n	8000ec2 <key_getkey_noblock+0x4a>
		return 0; //Keys not pressed
 8000ebe:	2300      	movs	r3, #0
 8000ec0:	e03c      	b.n	8000f3c <key_getkey_noblock+0xc4>
	} else {	//Checks where the key is pressed and returns location
		GPIO_C->MODER &= ~0x0000FFFF;
 8000ec2:	4b22      	ldr	r3, [pc, #136]	; (8000f4c <key_getkey_noblock+0xd4>)
 8000ec4:	681a      	ldr	r2, [r3, #0]
 8000ec6:	4b21      	ldr	r3, [pc, #132]	; (8000f4c <key_getkey_noblock+0xd4>)
 8000ec8:	681b      	ldr	r3, [r3, #0]
 8000eca:	681b      	ldr	r3, [r3, #0]
 8000ecc:	0c1b      	lsrs	r3, r3, #16
 8000ece:	041b      	lsls	r3, r3, #16
 8000ed0:	6013      	str	r3, [r2, #0]
		GPIO_C->MODER |= 0x00005500;
 8000ed2:	4b1e      	ldr	r3, [pc, #120]	; (8000f4c <key_getkey_noblock+0xd4>)
 8000ed4:	681b      	ldr	r3, [r3, #0]
 8000ed6:	4a1d      	ldr	r2, [pc, #116]	; (8000f4c <key_getkey_noblock+0xd4>)
 8000ed8:	6812      	ldr	r2, [r2, #0]
 8000eda:	6812      	ldr	r2, [r2, #0]
 8000edc:	f442 42aa 	orr.w	r2, r2, #21760	; 0x5500
 8000ee0:	601a      	str	r2, [r3, #0]
		delay_1us(1);
 8000ee2:	2001      	movs	r0, #1
 8000ee4:	f7ff ff36 	bl	8000d54 <delay_1us>
		int col = (0xF & (~(GPIO_C->IDR & 0x0000000F)));
 8000ee8:	4b18      	ldr	r3, [pc, #96]	; (8000f4c <key_getkey_noblock+0xd4>)
 8000eea:	681b      	ldr	r3, [r3, #0]
 8000eec:	691b      	ldr	r3, [r3, #16]
 8000eee:	43db      	mvns	r3, r3
 8000ef0:	f003 030f 	and.w	r3, r3, #15
 8000ef4:	64bb      	str	r3, [r7, #72]	; 0x48
		row = rowMap[row];
 8000ef6:	6cfb      	ldr	r3, [r7, #76]	; 0x4c
 8000ef8:	009b      	lsls	r3, r3, #2
 8000efa:	f107 0250 	add.w	r2, r7, #80	; 0x50
 8000efe:	4413      	add	r3, r2
 8000f00:	f853 3c2c 	ldr.w	r3, [r3, #-44]
 8000f04:	64fb      	str	r3, [r7, #76]	; 0x4c
		col = colMap[col];
 8000f06:	6cbb      	ldr	r3, [r7, #72]	; 0x48
 8000f08:	009b      	lsls	r3, r3, #2
 8000f0a:	f107 0250 	add.w	r2, r7, #80	; 0x50
 8000f0e:	4413      	add	r3, r2
 8000f10:	f853 3c50 	ldr.w	r3, [r3, #-80]
 8000f14:	64bb      	str	r3, [r7, #72]	; 0x48
		GPIO_C->MODER &= ~0x0000FFFF;
 8000f16:	4b0d      	ldr	r3, [pc, #52]	; (8000f4c <key_getkey_noblock+0xd4>)
 8000f18:	681a      	ldr	r2, [r3, #0]
 8000f1a:	4b0c      	ldr	r3, [pc, #48]	; (8000f4c <key_getkey_noblock+0xd4>)
 8000f1c:	681b      	ldr	r3, [r3, #0]
 8000f1e:	681b      	ldr	r3, [r3, #0]
 8000f20:	0c1b      	lsrs	r3, r3, #16
 8000f22:	041b      	lsls	r3, r3, #16
 8000f24:	6013      	str	r3, [r2, #0]
		GPIO_C->MODER |= 0x00000055;
 8000f26:	4b09      	ldr	r3, [pc, #36]	; (8000f4c <key_getkey_noblock+0xd4>)
 8000f28:	681b      	ldr	r3, [r3, #0]
 8000f2a:	4a08      	ldr	r2, [pc, #32]	; (8000f4c <key_getkey_noblock+0xd4>)
 8000f2c:	6812      	ldr	r2, [r2, #0]
 8000f2e:	6812      	ldr	r2, [r2, #0]
 8000f30:	f042 0255 	orr.w	r2, r2, #85	; 0x55
 8000f34:	601a      	str	r2, [r3, #0]
		return row + col;
 8000f36:	6cfa      	ldr	r2, [r7, #76]	; 0x4c
 8000f38:	6cbb      	ldr	r3, [r7, #72]	; 0x48
 8000f3a:	4413      	add	r3, r2
	}
}
 8000f3c:	4618      	mov	r0, r3
 8000f3e:	3750      	adds	r7, #80	; 0x50
 8000f40:	46bd      	mov	sp, r7
 8000f42:	bdb0      	pop	{r4, r5, r7, pc}
 8000f44:	08005658 	.word	0x08005658
 8000f48:	0800567c 	.word	0x0800567c
 8000f4c:	20000000 	.word	0x20000000

08000f50 <key_getchar>:

char key_getchar() {	//Converts the pressed key back to ASCII to be displayed
 8000f50:	b5b0      	push	{r4, r5, r7, lr}
 8000f52:	b086      	sub	sp, #24
 8000f54:	af00      	add	r7, sp, #0
	key = 0;
 8000f56:	4b0d      	ldr	r3, [pc, #52]	; (8000f8c <key_getchar+0x3c>)
 8000f58:	2200      	movs	r2, #0
 8000f5a:	601a      	str	r2, [r3, #0]
	key = key_getkey(); //Gets the key that was pressed
 8000f5c:	f7ff ff66 	bl	8000e2c <key_getkey>
 8000f60:	4602      	mov	r2, r0
 8000f62:	4b0a      	ldr	r3, [pc, #40]	; (8000f8c <key_getchar+0x3c>)
 8000f64:	601a      	str	r2, [r3, #0]
	char keycode[17] = {'\0', '1', '2', '3', 'A', '4', '5', '6', 'B', '7', '8',
 8000f66:	4b0a      	ldr	r3, [pc, #40]	; (8000f90 <key_getchar+0x40>)
 8000f68:	1d3c      	adds	r4, r7, #4
 8000f6a:	461d      	mov	r5, r3
 8000f6c:	cd0f      	ldmia	r5!, {r0, r1, r2, r3}
 8000f6e:	c40f      	stmia	r4!, {r0, r1, r2, r3}
 8000f70:	682b      	ldr	r3, [r5, #0]
 8000f72:	7023      	strb	r3, [r4, #0]
			'9', 'C', '*', '0', '#', 'D'};
	return keycode[key];	//Replaces the pressed key with its ASCII value
 8000f74:	4b05      	ldr	r3, [pc, #20]	; (8000f8c <key_getchar+0x3c>)
 8000f76:	681b      	ldr	r3, [r3, #0]
 8000f78:	f107 0218 	add.w	r2, r7, #24
 8000f7c:	4413      	add	r3, r2
 8000f7e:	f813 3c14 	ldrb.w	r3, [r3, #-20]
}
 8000f82:	4618      	mov	r0, r3
 8000f84:	3718      	adds	r7, #24
 8000f86:	46bd      	mov	sp, r7
 8000f88:	bdb0      	pop	{r4, r5, r7, pc}
 8000f8a:	bf00      	nop
 8000f8c:	2000024c 	.word	0x2000024c
 8000f90:	080056a0 	.word	0x080056a0

08000f94 <lcd_init>:
static uint8_t LCD_HOME = 0x02;
static uint8_t LCD_ENTRY = 0x06;
static uint8_t LCD_DISP = 0x0F;


void lcd_init() {	//Init the lcd
 8000f94:	b580      	push	{r7, lr}
 8000f96:	af00      	add	r7, sp, #0
	delay_1ms(50);	//Power delay
 8000f98:	2032      	movs	r0, #50	; 0x32
 8000f9a:	f7ff fea9 	bl	8000cf0 <delay_1ms>

	//Enable GPIO pins A and C using RCC
	*(RCC_AHB1ENR ) = *(RCC_AHB1ENR ) | (1 << GPIOAEN);
 8000f9e:	492c      	ldr	r1, [pc, #176]	; (8001050 <lcd_init+0xbc>)
 8000fa0:	4b2b      	ldr	r3, [pc, #172]	; (8001050 <lcd_init+0xbc>)
 8000fa2:	681b      	ldr	r3, [r3, #0]
 8000fa4:	4a2b      	ldr	r2, [pc, #172]	; (8001054 <lcd_init+0xc0>)
 8000fa6:	6812      	ldr	r2, [r2, #0]
 8000fa8:	2001      	movs	r0, #1
 8000faa:	fa00 f202 	lsl.w	r2, r0, r2
 8000fae:	4313      	orrs	r3, r2
 8000fb0:	600b      	str	r3, [r1, #0]
	*(RCC_AHB1ENR ) = *(RCC_AHB1ENR ) | (1 << GPIOCEN);
 8000fb2:	4927      	ldr	r1, [pc, #156]	; (8001050 <lcd_init+0xbc>)
 8000fb4:	4b26      	ldr	r3, [pc, #152]	; (8001050 <lcd_init+0xbc>)
 8000fb6:	681b      	ldr	r3, [r3, #0]
 8000fb8:	4a27      	ldr	r2, [pc, #156]	; (8001058 <lcd_init+0xc4>)
 8000fba:	6812      	ldr	r2, [r2, #0]
 8000fbc:	2001      	movs	r0, #1
 8000fbe:	fa00 f202 	lsl.w	r2, r0, r2
 8000fc2:	4313      	orrs	r3, r2
 8000fc4:	600b      	str	r3, [r1, #0]
	//Set selet pins to ouputs
	GPIOA->MODER &= ~0x00FFFF00;
 8000fc6:	4b25      	ldr	r3, [pc, #148]	; (800105c <lcd_init+0xc8>)
 8000fc8:	681a      	ldr	r2, [r3, #0]
 8000fca:	4b24      	ldr	r3, [pc, #144]	; (800105c <lcd_init+0xc8>)
 8000fcc:	681b      	ldr	r3, [r3, #0]
 8000fce:	681b      	ldr	r3, [r3, #0]
 8000fd0:	f423 037f 	bic.w	r3, r3, #16711680	; 0xff0000
 8000fd4:	f423 437f 	bic.w	r3, r3, #65280	; 0xff00
 8000fd8:	6013      	str	r3, [r2, #0]
	GPIOA->MODER |= 0x00555500;
 8000fda:	4b20      	ldr	r3, [pc, #128]	; (800105c <lcd_init+0xc8>)
 8000fdc:	681a      	ldr	r2, [r3, #0]
 8000fde:	4b1f      	ldr	r3, [pc, #124]	; (800105c <lcd_init+0xc8>)
 8000fe0:	681b      	ldr	r3, [r3, #0]
 8000fe2:	681b      	ldr	r3, [r3, #0]
 8000fe4:	f443 03aa 	orr.w	r3, r3, #5570560	; 0x550000
 8000fe8:	f443 43aa 	orr.w	r3, r3, #21760	; 0x5500
 8000fec:	6013      	str	r3, [r2, #0]
	GPIOC->MODER &= ~0x003F0000;
 8000fee:	4b1c      	ldr	r3, [pc, #112]	; (8001060 <lcd_init+0xcc>)
 8000ff0:	681b      	ldr	r3, [r3, #0]
 8000ff2:	4a1b      	ldr	r2, [pc, #108]	; (8001060 <lcd_init+0xcc>)
 8000ff4:	6812      	ldr	r2, [r2, #0]
 8000ff6:	6812      	ldr	r2, [r2, #0]
 8000ff8:	f422 127c 	bic.w	r2, r2, #4128768	; 0x3f0000
 8000ffc:	601a      	str	r2, [r3, #0]
	GPIOC->MODER |= 0x00150000;
 8000ffe:	4b18      	ldr	r3, [pc, #96]	; (8001060 <lcd_init+0xcc>)
 8001000:	681b      	ldr	r3, [r3, #0]
 8001002:	4a17      	ldr	r2, [pc, #92]	; (8001060 <lcd_init+0xcc>)
 8001004:	6812      	ldr	r2, [r2, #0]
 8001006:	6812      	ldr	r2, [r2, #0]
 8001008:	f442 12a8 	orr.w	r2, r2, #1376256	; 0x150000
 800100c:	601a      	str	r2, [r3, #0]


	lcd_cmd((uint8_t) LCD_TWOLINE);	//Init both lines on lcd
 800100e:	4b15      	ldr	r3, [pc, #84]	; (8001064 <lcd_init+0xd0>)
 8001010:	781b      	ldrb	r3, [r3, #0]
 8001012:	4618      	mov	r0, r3
 8001014:	f000 f8d8 	bl	80011c8 <lcd_cmd>
	lcd_cmd((uint8_t) LCD_CLEAR);	//Clear lcd
 8001018:	4b13      	ldr	r3, [pc, #76]	; (8001068 <lcd_init+0xd4>)
 800101a:	781b      	ldrb	r3, [r3, #0]
 800101c:	4618      	mov	r0, r3
 800101e:	f000 f8d3 	bl	80011c8 <lcd_cmd>
	delay_1ms(2);
 8001022:	2002      	movs	r0, #2
 8001024:	f7ff fe64 	bl	8000cf0 <delay_1ms>

	lcd_cmd((uint8_t) LCD_HOME);	//Take cursor back to start spot
 8001028:	4b10      	ldr	r3, [pc, #64]	; (800106c <lcd_init+0xd8>)
 800102a:	781b      	ldrb	r3, [r3, #0]
 800102c:	4618      	mov	r0, r3
 800102e:	f000 f8cb 	bl	80011c8 <lcd_cmd>
	delay_1ms(2);
 8001032:	2002      	movs	r0, #2
 8001034:	f7ff fe5c 	bl	8000cf0 <delay_1ms>
	lcd_cmd((uint8_t) LCD_ENTRY);
 8001038:	4b0d      	ldr	r3, [pc, #52]	; (8001070 <lcd_init+0xdc>)
 800103a:	781b      	ldrb	r3, [r3, #0]
 800103c:	4618      	mov	r0, r3
 800103e:	f000 f8c3 	bl	80011c8 <lcd_cmd>
	lcd_cmd((uint8_t) LCD_DISP);	//Turn on lcd
 8001042:	4b0c      	ldr	r3, [pc, #48]	; (8001074 <lcd_init+0xe0>)
 8001044:	781b      	ldrb	r3, [r3, #0]
 8001046:	4618      	mov	r0, r3
 8001048:	f000 f8be 	bl	80011c8 <lcd_cmd>
}
 800104c:	bf00      	nop
 800104e:	bd80      	pop	{r7, pc}
 8001050:	40023830 	.word	0x40023830
 8001054:	20000250 	.word	0x20000250
 8001058:	20000010 	.word	0x20000010
 800105c:	2000000c 	.word	0x2000000c
 8001060:	20000008 	.word	0x20000008
 8001064:	20000014 	.word	0x20000014
 8001068:	20000015 	.word	0x20000015
 800106c:	20000016 	.word	0x20000016
 8001070:	20000017 	.word	0x20000017
 8001074:	20000018 	.word	0x20000018

08001078 <lcd_clear>:

void lcd_clear() {	//Clears lcd
 8001078:	b580      	push	{r7, lr}
 800107a:	af00      	add	r7, sp, #0
	lcd_cmd((uint8_t) LCD_CLEAR);
 800107c:	4b04      	ldr	r3, [pc, #16]	; (8001090 <lcd_clear+0x18>)
 800107e:	781b      	ldrb	r3, [r3, #0]
 8001080:	4618      	mov	r0, r3
 8001082:	f000 f8a1 	bl	80011c8 <lcd_cmd>
	delay_1ms(2);
 8001086:	2002      	movs	r0, #2
 8001088:	f7ff fe32 	bl	8000cf0 <delay_1ms>
}
 800108c:	bf00      	nop
 800108e:	bd80      	pop	{r7, pc}
 8001090:	20000015 	.word	0x20000015

08001094 <lcd_home>:

void lcd_home() {	//Sets cursor back to start position
 8001094:	b580      	push	{r7, lr}
 8001096:	af00      	add	r7, sp, #0
	lcd_cmd((uint8_t) LCD_HOME);
 8001098:	4b04      	ldr	r3, [pc, #16]	; (80010ac <lcd_home+0x18>)
 800109a:	781b      	ldrb	r3, [r3, #0]
 800109c:	4618      	mov	r0, r3
 800109e:	f000 f893 	bl	80011c8 <lcd_cmd>
	delay_1ms(2);
 80010a2:	2002      	movs	r0, #2
 80010a4:	f7ff fe24 	bl	8000cf0 <delay_1ms>
}
 80010a8:	bf00      	nop
 80010aa:	bd80      	pop	{r7, pc}
 80010ac:	20000016 	.word	0x20000016

080010b0 <lcd_set_position>:

void lcd_set_position(int row, int column) {	//Sets the location of the cursor on the screen
 80010b0:	b580      	push	{r7, lr}
 80010b2:	b084      	sub	sp, #16
 80010b4:	af00      	add	r7, sp, #0
 80010b6:	6078      	str	r0, [r7, #4]
 80010b8:	6039      	str	r1, [r7, #0]
	lcd_home();	//Places cursor at start
 80010ba:	f7ff ffeb 	bl	8001094 <lcd_home>
	if (row >= 0 && row < 16) {
 80010be:	687b      	ldr	r3, [r7, #4]
 80010c0:	2b00      	cmp	r3, #0
 80010c2:	db13      	blt.n	80010ec <lcd_set_position+0x3c>
 80010c4:	687b      	ldr	r3, [r7, #4]
 80010c6:	2b0f      	cmp	r3, #15
 80010c8:	dc10      	bgt.n	80010ec <lcd_set_position+0x3c>
		if (column == 1) {	//Checks to see desired row
 80010ca:	683b      	ldr	r3, [r7, #0]
 80010cc:	2b01      	cmp	r3, #1
 80010ce:	d102      	bne.n	80010d6 <lcd_set_position+0x26>
			row += 0x40;
 80010d0:	687b      	ldr	r3, [r7, #4]
 80010d2:	3340      	adds	r3, #64	; 0x40
 80010d4:	607b      	str	r3, [r7, #4]
		}
		row = row | (1 << 7);
 80010d6:	687b      	ldr	r3, [r7, #4]
 80010d8:	f043 0380 	orr.w	r3, r3, #128	; 0x80
 80010dc:	607b      	str	r3, [r7, #4]
		lcd_cmd(row);
 80010de:	6878      	ldr	r0, [r7, #4]
 80010e0:	f000 f872 	bl	80011c8 <lcd_cmd>
		delay_1ms(2);
 80010e4:	2002      	movs	r0, #2
 80010e6:	f7ff fe03 	bl	8000cf0 <delay_1ms>
	if (row >= 0 && row < 16) {
 80010ea:	e005      	b.n	80010f8 <lcd_set_position+0x48>
	} else {	//Data too large
		char *error = "Position Err\n";
 80010ec:	4b04      	ldr	r3, [pc, #16]	; (8001100 <lcd_set_position+0x50>)
 80010ee:	60fb      	str	r3, [r7, #12]
		lcd_print_string(error);
 80010f0:	68f8      	ldr	r0, [r7, #12]
 80010f2:	f000 f83f 	bl	8001174 <lcd_print_string>
		while (1 == 1) {
 80010f6:	e7fe      	b.n	80010f6 <lcd_set_position+0x46>
		}
	}
}
 80010f8:	bf00      	nop
 80010fa:	3710      	adds	r7, #16
 80010fc:	46bd      	mov	sp, r7
 80010fe:	bd80      	pop	{r7, pc}
 8001100:	080056b4 	.word	0x080056b4

08001104 <lcd_print_num>:

void lcd_print_num(int num) {	//Prints nums to lcd
 8001104:	b580      	push	{r7, lr}
 8001106:	b08a      	sub	sp, #40	; 0x28
 8001108:	af00      	add	r7, sp, #0
 800110a:	6078      	str	r0, [r7, #4]
	int arraySize = 16;
 800110c:	2310      	movs	r3, #16
 800110e:	61fb      	str	r3, [r7, #28]
	char numList[16] = { 0 };
 8001110:	f107 030c 	add.w	r3, r7, #12
 8001114:	2200      	movs	r2, #0
 8001116:	601a      	str	r2, [r3, #0]
 8001118:	605a      	str	r2, [r3, #4]
 800111a:	609a      	str	r2, [r3, #8]
 800111c:	60da      	str	r2, [r3, #12]
	int numDisp = 0;
 800111e:	2300      	movs	r3, #0
 8001120:	627b      	str	r3, [r7, #36]	; 0x24

	sprintf(numList, "%i", num);
 8001122:	f107 030c 	add.w	r3, r7, #12
 8001126:	687a      	ldr	r2, [r7, #4]
 8001128:	4911      	ldr	r1, [pc, #68]	; (8001170 <lcd_print_num+0x6c>)
 800112a:	4618      	mov	r0, r3
 800112c:	f001 fb98 	bl	8002860 <siprintf>
	for (int i = 0; i < arraySize; i++) {
 8001130:	2300      	movs	r3, #0
 8001132:	623b      	str	r3, [r7, #32]
 8001134:	e014      	b.n	8001160 <lcd_print_num+0x5c>
		if (numList[i] > 0) {
 8001136:	f107 020c 	add.w	r2, r7, #12
 800113a:	6a3b      	ldr	r3, [r7, #32]
 800113c:	4413      	add	r3, r2
 800113e:	781b      	ldrb	r3, [r3, #0]
 8001140:	2b00      	cmp	r3, #0
 8001142:	d00a      	beq.n	800115a <lcd_print_num+0x56>
			lcd_data((uint8_t) numList[i]);
 8001144:	f107 020c 	add.w	r2, r7, #12
 8001148:	6a3b      	ldr	r3, [r7, #32]
 800114a:	4413      	add	r3, r2
 800114c:	781b      	ldrb	r3, [r3, #0]
 800114e:	4618      	mov	r0, r3
 8001150:	f000 f85a 	bl	8001208 <lcd_data>
			numDisp++;
 8001154:	6a7b      	ldr	r3, [r7, #36]	; 0x24
 8001156:	3301      	adds	r3, #1
 8001158:	627b      	str	r3, [r7, #36]	; 0x24
	for (int i = 0; i < arraySize; i++) {
 800115a:	6a3b      	ldr	r3, [r7, #32]
 800115c:	3301      	adds	r3, #1
 800115e:	623b      	str	r3, [r7, #32]
 8001160:	6a3a      	ldr	r2, [r7, #32]
 8001162:	69fb      	ldr	r3, [r7, #28]
 8001164:	429a      	cmp	r2, r3
 8001166:	dbe6      	blt.n	8001136 <lcd_print_num+0x32>
		} else {
		}
	}
}
 8001168:	bf00      	nop
 800116a:	3728      	adds	r7, #40	; 0x28
 800116c:	46bd      	mov	sp, r7
 800116e:	bd80      	pop	{r7, pc}
 8001170:	080056c4 	.word	0x080056c4

08001174 <lcd_print_string>:

void lcd_print_string(char* string) {	//Prints chars to lcd
 8001174:	b580      	push	{r7, lr}
 8001176:	b086      	sub	sp, #24
 8001178:	af00      	add	r7, sp, #0
 800117a:	6078      	str	r0, [r7, #4]
	int arraySize = 16;
 800117c:	2310      	movs	r3, #16
 800117e:	60fb      	str	r3, [r7, #12]
	int charDisp = 0;
 8001180:	2300      	movs	r3, #0
 8001182:	617b      	str	r3, [r7, #20]
	for (int i = 0; i < arraySize; i++) {
 8001184:	2300      	movs	r3, #0
 8001186:	613b      	str	r3, [r7, #16]
 8001188:	e015      	b.n	80011b6 <lcd_print_string+0x42>
		if (string[i] != '\0') {
 800118a:	693b      	ldr	r3, [r7, #16]
 800118c:	687a      	ldr	r2, [r7, #4]
 800118e:	4413      	add	r3, r2
 8001190:	781b      	ldrb	r3, [r3, #0]
 8001192:	2b00      	cmp	r3, #0
 8001194:	d00a      	beq.n	80011ac <lcd_print_string+0x38>
			lcd_data((uint8_t) string[i]);
 8001196:	693b      	ldr	r3, [r7, #16]
 8001198:	687a      	ldr	r2, [r7, #4]
 800119a:	4413      	add	r3, r2
 800119c:	781b      	ldrb	r3, [r3, #0]
 800119e:	4618      	mov	r0, r3
 80011a0:	f000 f832 	bl	8001208 <lcd_data>
			charDisp++;
 80011a4:	697b      	ldr	r3, [r7, #20]
 80011a6:	3301      	adds	r3, #1
 80011a8:	617b      	str	r3, [r7, #20]
 80011aa:	e001      	b.n	80011b0 <lcd_print_string+0x3c>
		} else {
			i = arraySize;
 80011ac:	68fb      	ldr	r3, [r7, #12]
 80011ae:	613b      	str	r3, [r7, #16]
	for (int i = 0; i < arraySize; i++) {
 80011b0:	693b      	ldr	r3, [r7, #16]
 80011b2:	3301      	adds	r3, #1
 80011b4:	613b      	str	r3, [r7, #16]
 80011b6:	693a      	ldr	r2, [r7, #16]
 80011b8:	68fb      	ldr	r3, [r7, #12]
 80011ba:	429a      	cmp	r2, r3
 80011bc:	dbe5      	blt.n	800118a <lcd_print_string+0x16>
		}
	}
}
 80011be:	bf00      	nop
 80011c0:	3718      	adds	r7, #24
 80011c2:	46bd      	mov	sp, r7
 80011c4:	bd80      	pop	{r7, pc}
	...

080011c8 <lcd_cmd>:

void lcd_cmd(uint8_t data) {	//Sets lcd up to do commands
 80011c8:	b580      	push	{r7, lr}
 80011ca:	b082      	sub	sp, #8
 80011cc:	af00      	add	r7, sp, #0
 80011ce:	4603      	mov	r3, r0
 80011d0:	71fb      	strb	r3, [r7, #7]
	GPIOC->BSRR |= (1 << 9) << 16; //rw
 80011d2:	4b0c      	ldr	r3, [pc, #48]	; (8001204 <lcd_cmd+0x3c>)
 80011d4:	681b      	ldr	r3, [r3, #0]
 80011d6:	4a0b      	ldr	r2, [pc, #44]	; (8001204 <lcd_cmd+0x3c>)
 80011d8:	6812      	ldr	r2, [r2, #0]
 80011da:	6992      	ldr	r2, [r2, #24]
 80011dc:	f042 7200 	orr.w	r2, r2, #33554432	; 0x2000000
 80011e0:	619a      	str	r2, [r3, #24]
	GPIOC->BSRR |= (1 << 8) << 16; //rs
 80011e2:	4b08      	ldr	r3, [pc, #32]	; (8001204 <lcd_cmd+0x3c>)
 80011e4:	681b      	ldr	r3, [r3, #0]
 80011e6:	4a07      	ldr	r2, [pc, #28]	; (8001204 <lcd_cmd+0x3c>)
 80011e8:	6812      	ldr	r2, [r2, #0]
 80011ea:	6992      	ldr	r2, [r2, #24]
 80011ec:	f042 7280 	orr.w	r2, r2, #16777216	; 0x1000000
 80011f0:	619a      	str	r2, [r3, #24]
	lcd_exec(data);
 80011f2:	79fb      	ldrb	r3, [r7, #7]
 80011f4:	4618      	mov	r0, r3
 80011f6:	f000 f827 	bl	8001248 <lcd_exec>
}
 80011fa:	bf00      	nop
 80011fc:	3708      	adds	r7, #8
 80011fe:	46bd      	mov	sp, r7
 8001200:	bd80      	pop	{r7, pc}
 8001202:	bf00      	nop
 8001204:	20000008 	.word	0x20000008

08001208 <lcd_data>:

void lcd_data(uint8_t data) {	//Preps lcd for data
 8001208:	b580      	push	{r7, lr}
 800120a:	b082      	sub	sp, #8
 800120c:	af00      	add	r7, sp, #0
 800120e:	4603      	mov	r3, r0
 8001210:	71fb      	strb	r3, [r7, #7]
	GPIOC->BSRR |= (1 << 9) << 16; //rw
 8001212:	4b0c      	ldr	r3, [pc, #48]	; (8001244 <lcd_data+0x3c>)
 8001214:	681b      	ldr	r3, [r3, #0]
 8001216:	4a0b      	ldr	r2, [pc, #44]	; (8001244 <lcd_data+0x3c>)
 8001218:	6812      	ldr	r2, [r2, #0]
 800121a:	6992      	ldr	r2, [r2, #24]
 800121c:	f042 7200 	orr.w	r2, r2, #33554432	; 0x2000000
 8001220:	619a      	str	r2, [r3, #24]
	GPIOC->BSRR |= (1 << 8); //rs
 8001222:	4b08      	ldr	r3, [pc, #32]	; (8001244 <lcd_data+0x3c>)
 8001224:	681b      	ldr	r3, [r3, #0]
 8001226:	4a07      	ldr	r2, [pc, #28]	; (8001244 <lcd_data+0x3c>)
 8001228:	6812      	ldr	r2, [r2, #0]
 800122a:	6992      	ldr	r2, [r2, #24]
 800122c:	f442 7280 	orr.w	r2, r2, #256	; 0x100
 8001230:	619a      	str	r2, [r3, #24]
	lcd_exec(data);
 8001232:	79fb      	ldrb	r3, [r7, #7]
 8001234:	4618      	mov	r0, r3
 8001236:	f000 f807 	bl	8001248 <lcd_exec>
}
 800123a:	bf00      	nop
 800123c:	3708      	adds	r7, #8
 800123e:	46bd      	mov	sp, r7
 8001240:	bd80      	pop	{r7, pc}
 8001242:	bf00      	nop
 8001244:	20000008 	.word	0x20000008

08001248 <lcd_exec>:

void lcd_exec(uint8_t data) {	//Executes the command
 8001248:	b580      	push	{r7, lr}
 800124a:	b082      	sub	sp, #8
 800124c:	af00      	add	r7, sp, #0
 800124e:	4603      	mov	r3, r0
 8001250:	71fb      	strb	r3, [r7, #7]
	lcd_set(data);
 8001252:	79fb      	ldrb	r3, [r7, #7]
 8001254:	4618      	mov	r0, r3
 8001256:	f000 f809 	bl	800126c <lcd_set>
	lcd_latch();	//Pulses enable bit
 800125a:	f000 f825 	bl	80012a8 <lcd_latch>
	delay_1us(100);
 800125e:	2064      	movs	r0, #100	; 0x64
 8001260:	f7ff fd78 	bl	8000d54 <delay_1us>
}
 8001264:	bf00      	nop
 8001266:	3708      	adds	r7, #8
 8001268:	46bd      	mov	sp, r7
 800126a:	bd80      	pop	{r7, pc}

0800126c <lcd_set>:

void lcd_set(uint8_t data) {	//Sets data to output
 800126c:	b480      	push	{r7}
 800126e:	b083      	sub	sp, #12
 8001270:	af00      	add	r7, sp, #0
 8001272:	4603      	mov	r3, r0
 8001274:	71fb      	strb	r3, [r7, #7]
	GPIOA->ODR &= ~0xFF0;
 8001276:	4b0b      	ldr	r3, [pc, #44]	; (80012a4 <lcd_set+0x38>)
 8001278:	681b      	ldr	r3, [r3, #0]
 800127a:	4a0a      	ldr	r2, [pc, #40]	; (80012a4 <lcd_set+0x38>)
 800127c:	6812      	ldr	r2, [r2, #0]
 800127e:	6952      	ldr	r2, [r2, #20]
 8001280:	f422 627f 	bic.w	r2, r2, #4080	; 0xff0
 8001284:	615a      	str	r2, [r3, #20]
	GPIOA->ODR |= data << 4;
 8001286:	4b07      	ldr	r3, [pc, #28]	; (80012a4 <lcd_set+0x38>)
 8001288:	681b      	ldr	r3, [r3, #0]
 800128a:	4a06      	ldr	r2, [pc, #24]	; (80012a4 <lcd_set+0x38>)
 800128c:	6812      	ldr	r2, [r2, #0]
 800128e:	6952      	ldr	r2, [r2, #20]
 8001290:	79f9      	ldrb	r1, [r7, #7]
 8001292:	0109      	lsls	r1, r1, #4
 8001294:	430a      	orrs	r2, r1
 8001296:	615a      	str	r2, [r3, #20]
}
 8001298:	bf00      	nop
 800129a:	370c      	adds	r7, #12
 800129c:	46bd      	mov	sp, r7
 800129e:	f85d 7b04 	ldr.w	r7, [sp], #4
 80012a2:	4770      	bx	lr
 80012a4:	2000000c 	.word	0x2000000c

080012a8 <lcd_latch>:

void lcd_latch() {	//Pulses enable bit so data can be sent
 80012a8:	b580      	push	{r7, lr}
 80012aa:	af00      	add	r7, sp, #0
	GPIOC->BSRR |= (1 << 10); //Pulse E high
 80012ac:	4b0b      	ldr	r3, [pc, #44]	; (80012dc <lcd_latch+0x34>)
 80012ae:	681b      	ldr	r3, [r3, #0]
 80012b0:	4a0a      	ldr	r2, [pc, #40]	; (80012dc <lcd_latch+0x34>)
 80012b2:	6812      	ldr	r2, [r2, #0]
 80012b4:	6992      	ldr	r2, [r2, #24]
 80012b6:	f442 6280 	orr.w	r2, r2, #1024	; 0x400
 80012ba:	619a      	str	r2, [r3, #24]
	delay_1us(10);
 80012bc:	200a      	movs	r0, #10
 80012be:	f7ff fd49 	bl	8000d54 <delay_1us>
	GPIOC->BSRR |= (1 << 10) << 16; //Pulse E low
 80012c2:	4b06      	ldr	r3, [pc, #24]	; (80012dc <lcd_latch+0x34>)
 80012c4:	681b      	ldr	r3, [r3, #0]
 80012c6:	4a05      	ldr	r2, [pc, #20]	; (80012dc <lcd_latch+0x34>)
 80012c8:	6812      	ldr	r2, [r2, #0]
 80012ca:	6992      	ldr	r2, [r2, #24]
 80012cc:	f042 6280 	orr.w	r2, r2, #67108864	; 0x4000000
 80012d0:	619a      	str	r2, [r3, #24]
	delay_1us(10);
 80012d2:	200a      	movs	r0, #10
 80012d4:	f7ff fd3e 	bl	8000d54 <delay_1us>
}
 80012d8:	bf00      	nop
 80012da:	bd80      	pop	{r7, pc}
 80012dc:	20000008 	.word	0x20000008

080012e0 <led_init>:
//Init speed and level
static int speed= 100;
static int level = 2;

//Init the LED by configuring pins
void led_init(){
 80012e0:	b480      	push	{r7}
 80012e2:	af00      	add	r7, sp, #0
*(RCC_AHB1ENR) = *(RCC_AHB1ENR) &~ 0x00000002;
 80012e4:	4a0e      	ldr	r2, [pc, #56]	; (8001320 <led_init+0x40>)
 80012e6:	4b0e      	ldr	r3, [pc, #56]	; (8001320 <led_init+0x40>)
 80012e8:	681b      	ldr	r3, [r3, #0]
 80012ea:	f023 0302 	bic.w	r3, r3, #2
 80012ee:	6013      	str	r3, [r2, #0]
*(RCC_AHB1ENR) = *(RCC_AHB1ENR) | (1 << GPIOBEN);
 80012f0:	4a0b      	ldr	r2, [pc, #44]	; (8001320 <led_init+0x40>)
 80012f2:	4b0b      	ldr	r3, [pc, #44]	; (8001320 <led_init+0x40>)
 80012f4:	681b      	ldr	r3, [r3, #0]
 80012f6:	f043 0302 	orr.w	r3, r3, #2
 80012fa:	6013      	str	r3, [r2, #0]
*(GPIOB_MODER) = *(GPIOB_MODER) &~ 0xFF3FFC00;
 80012fc:	4909      	ldr	r1, [pc, #36]	; (8001324 <led_init+0x44>)
 80012fe:	4b09      	ldr	r3, [pc, #36]	; (8001324 <led_init+0x44>)
 8001300:	681a      	ldr	r2, [r3, #0]
 8001302:	4b09      	ldr	r3, [pc, #36]	; (8001328 <led_init+0x48>)
 8001304:	4013      	ands	r3, r2
 8001306:	600b      	str	r3, [r1, #0]
*(GPIOB_MODER) = *(GPIOB_MODER) | MODER_MASK;
 8001308:	4906      	ldr	r1, [pc, #24]	; (8001324 <led_init+0x44>)
 800130a:	4b06      	ldr	r3, [pc, #24]	; (8001324 <led_init+0x44>)
 800130c:	681a      	ldr	r2, [r3, #0]
 800130e:	4b07      	ldr	r3, [pc, #28]	; (800132c <led_init+0x4c>)
 8001310:	4313      	orrs	r3, r2
 8001312:	600b      	str	r3, [r1, #0]
}
 8001314:	bf00      	nop
 8001316:	46bd      	mov	sp, r7
 8001318:	f85d 7b04 	ldr.w	r7, [sp], #4
 800131c:	4770      	bx	lr
 800131e:	bf00      	nop
 8001320:	40023830 	.word	0x40023830
 8001324:	40020400 	.word	0x40020400
 8001328:	00c003ff 	.word	0x00c003ff
 800132c:	55155400 	.word	0x55155400

08001330 <led_allOn>:

//Turns on all LED
void led_allOn(){
 8001330:	b480      	push	{r7}
 8001332:	af00      	add	r7, sp, #0
*(GPIOB_ODR) = *(GPIOB_ODR) &~ 0x0000F7E0;
 8001334:	4a0a      	ldr	r2, [pc, #40]	; (8001360 <led_allOn+0x30>)
 8001336:	4b0a      	ldr	r3, [pc, #40]	; (8001360 <led_allOn+0x30>)
 8001338:	681b      	ldr	r3, [r3, #0]
 800133a:	f423 4377 	bic.w	r3, r3, #63232	; 0xf700
 800133e:	f023 03e0 	bic.w	r3, r3, #224	; 0xe0
 8001342:	6013      	str	r3, [r2, #0]
*(GPIOB_ODR) = *(GPIOB_ODR) | LED_on;
 8001344:	4a06      	ldr	r2, [pc, #24]	; (8001360 <led_allOn+0x30>)
 8001346:	4b06      	ldr	r3, [pc, #24]	; (8001360 <led_allOn+0x30>)
 8001348:	681b      	ldr	r3, [r3, #0]
 800134a:	f443 4377 	orr.w	r3, r3, #63232	; 0xf700
 800134e:	f043 03e0 	orr.w	r3, r3, #224	; 0xe0
 8001352:	6013      	str	r3, [r2, #0]
}
 8001354:	bf00      	nop
 8001356:	46bd      	mov	sp, r7
 8001358:	f85d 7b04 	ldr.w	r7, [sp], #4
 800135c:	4770      	bx	lr
 800135e:	bf00      	nop
 8001360:	40020414 	.word	0x40020414

08001364 <led_allOff>:

//Turns off all the LED
void led_allOff(){
 8001364:	b480      	push	{r7}
 8001366:	af00      	add	r7, sp, #0
*(GPIOB_ODR) = *(GPIOB_ODR) &~ 0x0000F7E0;
 8001368:	4a06      	ldr	r2, [pc, #24]	; (8001384 <led_allOff+0x20>)
 800136a:	4b06      	ldr	r3, [pc, #24]	; (8001384 <led_allOff+0x20>)
 800136c:	681b      	ldr	r3, [r3, #0]
 800136e:	f423 4377 	bic.w	r3, r3, #63232	; 0xf700
 8001372:	f023 03e0 	bic.w	r3, r3, #224	; 0xe0
 8001376:	6013      	str	r3, [r2, #0]
}
 8001378:	bf00      	nop
 800137a:	46bd      	mov	sp, r7
 800137c:	f85d 7b04 	ldr.w	r7, [sp], #4
 8001380:	4770      	bx	lr
 8001382:	bf00      	nop
 8001384:	40020414 	.word	0x40020414

08001388 <led_on>:

//Turns on just one LED
void led_on(uint8_t ledIndex){
 8001388:	b480      	push	{r7}
 800138a:	b083      	sub	sp, #12
 800138c:	af00      	add	r7, sp, #0
 800138e:	4603      	mov	r3, r0
 8001390:	71fb      	strb	r3, [r7, #7]
*(GPIOB_BSRR) = 1 << ledIndex;
 8001392:	4a06      	ldr	r2, [pc, #24]	; (80013ac <led_on+0x24>)
 8001394:	79fb      	ldrb	r3, [r7, #7]
 8001396:	2101      	movs	r1, #1
 8001398:	fa01 f303 	lsl.w	r3, r1, r3
 800139c:	6013      	str	r3, [r2, #0]
}
 800139e:	bf00      	nop
 80013a0:	370c      	adds	r7, #12
 80013a2:	46bd      	mov	sp, r7
 80013a4:	f85d 7b04 	ldr.w	r7, [sp], #4
 80013a8:	4770      	bx	lr
 80013aa:	bf00      	nop
 80013ac:	40020418 	.word	0x40020418

080013b0 <led_flash>:
		}
	}
}

//Pulses the LED
void led_flash(){
 80013b0:	b580      	push	{r7, lr}
 80013b2:	b082      	sub	sp, #8
 80013b4:	af00      	add	r7, sp, #0
	for(int i = 0; i < 5; i++){
 80013b6:	2300      	movs	r3, #0
 80013b8:	607b      	str	r3, [r7, #4]
 80013ba:	e010      	b.n	80013de <led_flash+0x2e>
		led_allOn();
 80013bc:	f7ff ffb8 	bl	8001330 <led_allOn>
		delay_1ms(speed);
 80013c0:	4b0a      	ldr	r3, [pc, #40]	; (80013ec <led_flash+0x3c>)
 80013c2:	681b      	ldr	r3, [r3, #0]
 80013c4:	4618      	mov	r0, r3
 80013c6:	f7ff fc93 	bl	8000cf0 <delay_1ms>
		led_allOff();
 80013ca:	f7ff ffcb 	bl	8001364 <led_allOff>
		delay_1ms(speed);
 80013ce:	4b07      	ldr	r3, [pc, #28]	; (80013ec <led_flash+0x3c>)
 80013d0:	681b      	ldr	r3, [r3, #0]
 80013d2:	4618      	mov	r0, r3
 80013d4:	f7ff fc8c 	bl	8000cf0 <delay_1ms>
	for(int i = 0; i < 5; i++){
 80013d8:	687b      	ldr	r3, [r7, #4]
 80013da:	3301      	adds	r3, #1
 80013dc:	607b      	str	r3, [r7, #4]
 80013de:	687b      	ldr	r3, [r7, #4]
 80013e0:	2b04      	cmp	r3, #4
 80013e2:	ddeb      	ble.n	80013bc <led_flash+0xc>
	}
}
 80013e4:	bf00      	nop
 80013e6:	3708      	adds	r7, #8
 80013e8:	46bd      	mov	sp, r7
 80013ea:	bd80      	pop	{r7, pc}
 80013ec:	2000001c 	.word	0x2000001c

080013f0 <main>:
static int score = 0; //Player's score
static int userIn; //The number the player enters at the start to give seed to random code generator
static int entered = 0; //Value to keep track if rotary is entered
static int track = 0; //Keeps track of whether all values in arrays match up

int main() { //Main method
 80013f0:	b580      	push	{r7, lr}
 80013f2:	b082      	sub	sp, #8
 80013f4:	af00      	add	r7, sp, #0
	lcd_init();	//Initializes the different components used
 80013f6:	f7ff fdcd 	bl	8000f94 <lcd_init>
	key_init();
 80013fa:	f7ff fcdd 	bl	8000db8 <key_init>
	speaker_init();
 80013fe:	f000 f9e7 	bl	80017d0 <speaker_init>
	led_init();
 8001402:	f7ff ff6d 	bl	80012e0 <led_init>
	rotary_init();
 8001406:	f000 f997 	bl	8001738 <rotary_init>

	int compare = 0; //Variable that checks if the codes are the same
 800140a:	2300      	movs	r3, #0
 800140c:	607b      	str	r3, [r7, #4]
	introScreen();	//Method that displays the intro prompt
 800140e:	f000 f939 	bl	8001684 <introScreen>
	newCode(); //Method that displays the random code generated
 8001412:	f000 f8c3 	bl	800159c <newCode>

	while (score != 5) { //Loop to run until proper score is reached
 8001416:	e02e      	b.n	8001476 <main+0x86>
		compare = compare_Array(); //Sets the whether the codes are the same to compare
 8001418:	f000 f84c 	bl	80014b4 <compare_Array>
 800141c:	6078      	str	r0, [r7, #4]
		if (compare == 1) { //If codes are equal
 800141e:	687b      	ldr	r3, [r7, #4]
 8001420:	2b01      	cmp	r3, #1
 8001422:	d118      	bne.n	8001456 <main+0x66>
			score++; //increment player score
 8001424:	4b20      	ldr	r3, [pc, #128]	; (80014a8 <main+0xb8>)
 8001426:	681b      	ldr	r3, [r3, #0]
 8001428:	3301      	adds	r3, #1
 800142a:	4a1f      	ldr	r2, [pc, #124]	; (80014a8 <main+0xb8>)
 800142c:	6013      	str	r3, [r2, #0]
			lcd_set_position(15, 1); //Places all of the displays properly
 800142e:	2101      	movs	r1, #1
 8001430:	200f      	movs	r0, #15
 8001432:	f7ff fe3d 	bl	80010b0 <lcd_set_position>
			lcd_print_num(score);
 8001436:	4b1c      	ldr	r3, [pc, #112]	; (80014a8 <main+0xb8>)
 8001438:	681b      	ldr	r3, [r3, #0]
 800143a:	4618      	mov	r0, r3
 800143c:	f7ff fe62 	bl	8001104 <lcd_print_num>
			delay_1ms(300);
 8001440:	f44f 7096 	mov.w	r0, #300	; 0x12c
 8001444:	f7ff fc54 	bl	8000cf0 <delay_1ms>
			enterRight();
 8001448:	f000 f8e4 	bl	8001614 <enterRight>
			compare = 0; //Sets compare to false so it can check again
 800144c:	2300      	movs	r3, #0
 800144e:	607b      	str	r3, [r7, #4]
			newCode(); //Calls the method to generate a new rand code
 8001450:	f000 f8a4 	bl	800159c <newCode>
 8001454:	e00f      	b.n	8001476 <main+0x86>
		} else { //If codes are not equal
			score = 0; //Player score is wiped
 8001456:	4b14      	ldr	r3, [pc, #80]	; (80014a8 <main+0xb8>)
 8001458:	2200      	movs	r2, #0
 800145a:	601a      	str	r2, [r3, #0]
			lcd_set_position(15, 1); //Places displays properly for wrong code entered
 800145c:	2101      	movs	r1, #1
 800145e:	200f      	movs	r0, #15
 8001460:	f7ff fe26 	bl	80010b0 <lcd_set_position>
			lcd_print_num(score);
 8001464:	4b10      	ldr	r3, [pc, #64]	; (80014a8 <main+0xb8>)
 8001466:	681b      	ldr	r3, [r3, #0]
 8001468:	4618      	mov	r0, r3
 800146a:	f7ff fe4b 	bl	8001104 <lcd_print_num>
			enterWrong();
 800146e:	f000 f8ef 	bl	8001650 <enterWrong>
			newCode();
 8001472:	f000 f893 	bl	800159c <newCode>
	while (score != 5) { //Loop to run until proper score is reached
 8001476:	4b0c      	ldr	r3, [pc, #48]	; (80014a8 <main+0xb8>)
 8001478:	681b      	ldr	r3, [r3, #0]
 800147a:	2b05      	cmp	r3, #5
 800147c:	d1cc      	bne.n	8001418 <main+0x28>
		}
	}

	lcd_clear(); //Runs when player wins
 800147e:	f7ff fdfb 	bl	8001078 <lcd_clear>
	lcd_set_position(0, 0);
 8001482:	2100      	movs	r1, #0
 8001484:	2000      	movs	r0, #0
 8001486:	f7ff fe13 	bl	80010b0 <lcd_set_position>
	lcd_print_string("Congratulations!");
 800148a:	4808      	ldr	r0, [pc, #32]	; (80014ac <main+0xbc>)
 800148c:	f7ff fe72 	bl	8001174 <lcd_print_string>
	lcd_set_position(0, 1);
 8001490:	2101      	movs	r1, #1
 8001492:	2000      	movs	r0, #0
 8001494:	f7ff fe0c 	bl	80010b0 <lcd_set_position>
	lcd_print_string("You Beat My Game");
 8001498:	4805      	ldr	r0, [pc, #20]	; (80014b0 <main+0xc0>)
 800149a:	f7ff fe6b 	bl	8001174 <lcd_print_string>

	return 0;
 800149e:	2300      	movs	r3, #0
}
 80014a0:	4618      	mov	r0, r3
 80014a2:	3708      	adds	r7, #8
 80014a4:	46bd      	mov	sp, r7
 80014a6:	bd80      	pop	{r7, pc}
 80014a8:	2000025c 	.word	0x2000025c
 80014ac:	080056c8 	.word	0x080056c8
 80014b0:	080056dc 	.word	0x080056dc

080014b4 <compare_Array>:

int compare_Array() { //Method compares the codes
 80014b4:	b580      	push	{r7, lr}
 80014b6:	b082      	sub	sp, #8
 80014b8:	af00      	add	r7, sp, #0
	int returnVal = 0;
 80014ba:	2300      	movs	r3, #0
 80014bc:	603b      	str	r3, [r7, #0]
	lcd_set_position(0, 0);
 80014be:	2100      	movs	r1, #0
 80014c0:	2000      	movs	r0, #0
 80014c2:	f7ff fdf5 	bl	80010b0 <lcd_set_position>
	lcd_print_string("Enter Your Code:");
 80014c6:	481a      	ldr	r0, [pc, #104]	; (8001530 <compare_Array+0x7c>)
 80014c8:	f7ff fe54 	bl	8001174 <lcd_print_string>
	lcd_set_position(0, 1);
 80014cc:	2101      	movs	r1, #1
 80014ce:	2000      	movs	r0, #0
 80014d0:	f7ff fdee 	bl	80010b0 <lcd_set_position>
	for (int i = 0; i < 4; i++) { //Checks each value in the codes against each other
 80014d4:	2300      	movs	r3, #0
 80014d6:	607b      	str	r3, [r7, #4]
 80014d8:	e01f      	b.n	800151a <compare_Array+0x66>
		key[0] = key_getchar();
 80014da:	f7ff fd39 	bl	8000f50 <key_getchar>
 80014de:	4603      	mov	r3, r0
 80014e0:	461a      	mov	r2, r3
 80014e2:	4b14      	ldr	r3, [pc, #80]	; (8001534 <compare_Array+0x80>)
 80014e4:	701a      	strb	r2, [r3, #0]
		if (key[0] == code[i]) {
 80014e6:	4b13      	ldr	r3, [pc, #76]	; (8001534 <compare_Array+0x80>)
 80014e8:	781a      	ldrb	r2, [r3, #0]
 80014ea:	4913      	ldr	r1, [pc, #76]	; (8001538 <compare_Array+0x84>)
 80014ec:	687b      	ldr	r3, [r7, #4]
 80014ee:	440b      	add	r3, r1
 80014f0:	781b      	ldrb	r3, [r3, #0]
 80014f2:	429a      	cmp	r2, r3
 80014f4:	d108      	bne.n	8001508 <compare_Array+0x54>
			lcd_print_string(key);
 80014f6:	480f      	ldr	r0, [pc, #60]	; (8001534 <compare_Array+0x80>)
 80014f8:	f7ff fe3c 	bl	8001174 <lcd_print_string>
			track++;
 80014fc:	4b0f      	ldr	r3, [pc, #60]	; (800153c <compare_Array+0x88>)
 80014fe:	681b      	ldr	r3, [r3, #0]
 8001500:	3301      	adds	r3, #1
 8001502:	4a0e      	ldr	r2, [pc, #56]	; (800153c <compare_Array+0x88>)
 8001504:	6013      	str	r3, [r2, #0]
 8001506:	e005      	b.n	8001514 <compare_Array+0x60>
		} else {
			track = 0;
 8001508:	4b0c      	ldr	r3, [pc, #48]	; (800153c <compare_Array+0x88>)
 800150a:	2200      	movs	r2, #0
 800150c:	601a      	str	r2, [r3, #0]
			lcd_print_string(key);
 800150e:	4809      	ldr	r0, [pc, #36]	; (8001534 <compare_Array+0x80>)
 8001510:	f7ff fe30 	bl	8001174 <lcd_print_string>
	for (int i = 0; i < 4; i++) { //Checks each value in the codes against each other
 8001514:	687b      	ldr	r3, [r7, #4]
 8001516:	3301      	adds	r3, #1
 8001518:	607b      	str	r3, [r7, #4]
 800151a:	687b      	ldr	r3, [r7, #4]
 800151c:	2b03      	cmp	r3, #3
 800151e:	dddc      	ble.n	80014da <compare_Array+0x26>
		}
	}
	returnVal = isEntered();
 8001520:	f000 f8ec 	bl	80016fc <isEntered>
 8001524:	6038      	str	r0, [r7, #0]
}
 8001526:	bf00      	nop
 8001528:	4618      	mov	r0, r3
 800152a:	3708      	adds	r7, #8
 800152c:	46bd      	mov	sp, r7
 800152e:	bd80      	pop	{r7, pc}
 8001530:	080056f0 	.word	0x080056f0
 8001534:	20000258 	.word	0x20000258
 8001538:	20000254 	.word	0x20000254
 800153c:	20000268 	.word	0x20000268

08001540 <generate_Random>:

void generate_Random() { //Method generates a random code
 8001540:	b580      	push	{r7, lr}
 8001542:	b082      	sub	sp, #8
 8001544:	af00      	add	r7, sp, #0
	int num = 0;
 8001546:	2300      	movs	r3, #0
 8001548:	603b      	str	r3, [r7, #0]
	for (int i = 0; i < 4; i++) {
 800154a:	2300      	movs	r3, #0
 800154c:	607b      	str	r3, [r7, #4]
 800154e:	e016      	b.n	800157e <generate_Random+0x3e>
		num = (rand() % 16);
 8001550:	f001 f946 	bl	80027e0 <rand>
 8001554:	4603      	mov	r3, r0
 8001556:	425a      	negs	r2, r3
 8001558:	f003 030f 	and.w	r3, r3, #15
 800155c:	f002 020f 	and.w	r2, r2, #15
 8001560:	bf58      	it	pl
 8001562:	4253      	negpl	r3, r2
 8001564:	603b      	str	r3, [r7, #0]
		code[i] = possibleKey[num];
 8001566:	4a0b      	ldr	r2, [pc, #44]	; (8001594 <generate_Random+0x54>)
 8001568:	683b      	ldr	r3, [r7, #0]
 800156a:	4413      	add	r3, r2
 800156c:	7819      	ldrb	r1, [r3, #0]
 800156e:	4a0a      	ldr	r2, [pc, #40]	; (8001598 <generate_Random+0x58>)
 8001570:	687b      	ldr	r3, [r7, #4]
 8001572:	4413      	add	r3, r2
 8001574:	460a      	mov	r2, r1
 8001576:	701a      	strb	r2, [r3, #0]
	for (int i = 0; i < 4; i++) {
 8001578:	687b      	ldr	r3, [r7, #4]
 800157a:	3301      	adds	r3, #1
 800157c:	607b      	str	r3, [r7, #4]
 800157e:	687b      	ldr	r3, [r7, #4]
 8001580:	2b03      	cmp	r3, #3
 8001582:	dde5      	ble.n	8001550 <generate_Random+0x10>
	}
	code[4] = '\0';
 8001584:	4b04      	ldr	r3, [pc, #16]	; (8001598 <generate_Random+0x58>)
 8001586:	2200      	movs	r2, #0
 8001588:	711a      	strb	r2, [r3, #4]
}
 800158a:	bf00      	nop
 800158c:	3708      	adds	r7, #8
 800158e:	46bd      	mov	sp, r7
 8001590:	bd80      	pop	{r7, pc}
 8001592:	bf00      	nop
 8001594:	20000024 	.word	0x20000024
 8001598:	20000254 	.word	0x20000254

0800159c <newCode>:

void newCode() { //Method that prints out when a new code is generated
 800159c:	b580      	push	{r7, lr}
 800159e:	af00      	add	r7, sp, #0
	if (score != 5) {
 80015a0:	4b18      	ldr	r3, [pc, #96]	; (8001604 <newCode+0x68>)
 80015a2:	681b      	ldr	r3, [r3, #0]
 80015a4:	2b05      	cmp	r3, #5
 80015a6:	d02b      	beq.n	8001600 <newCode+0x64>
		lcd_clear();
 80015a8:	f7ff fd66 	bl	8001078 <lcd_clear>
		lcd_set_position(1, 0);
 80015ac:	2100      	movs	r1, #0
 80015ae:	2001      	movs	r0, #1
 80015b0:	f7ff fd7e 	bl	80010b0 <lcd_set_position>
		lcd_print_string("Remember This!");
 80015b4:	4814      	ldr	r0, [pc, #80]	; (8001608 <newCode+0x6c>)
 80015b6:	f7ff fddd 	bl	8001174 <lcd_print_string>
		delay_1ms(1000);
 80015ba:	f44f 707a 	mov.w	r0, #1000	; 0x3e8
 80015be:	f7ff fb97 	bl	8000cf0 <delay_1ms>
		generate_Random();
 80015c2:	f7ff ffbd 	bl	8001540 <generate_Random>
		lcd_set_position(6, 1);
 80015c6:	2101      	movs	r1, #1
 80015c8:	2006      	movs	r0, #6
 80015ca:	f7ff fd71 	bl	80010b0 <lcd_set_position>
		lcd_print_string(code);
 80015ce:	480f      	ldr	r0, [pc, #60]	; (800160c <newCode+0x70>)
 80015d0:	f7ff fdd0 	bl	8001174 <lcd_print_string>
		delay_1ms(500);
 80015d4:	f44f 70fa 	mov.w	r0, #500	; 0x1f4
 80015d8:	f7ff fb8a 	bl	8000cf0 <delay_1ms>
		lcd_clear();
 80015dc:	f7ff fd4c 	bl	8001078 <lcd_clear>
		lcd_set_position(9, 1);
 80015e0:	2101      	movs	r1, #1
 80015e2:	2009      	movs	r0, #9
 80015e4:	f7ff fd64 	bl	80010b0 <lcd_set_position>
		lcd_print_string("Score:");
 80015e8:	4809      	ldr	r0, [pc, #36]	; (8001610 <newCode+0x74>)
 80015ea:	f7ff fdc3 	bl	8001174 <lcd_print_string>
		lcd_set_position(15, 1);
 80015ee:	2101      	movs	r1, #1
 80015f0:	200f      	movs	r0, #15
 80015f2:	f7ff fd5d 	bl	80010b0 <lcd_set_position>
		lcd_print_num(score);
 80015f6:	4b03      	ldr	r3, [pc, #12]	; (8001604 <newCode+0x68>)
 80015f8:	681b      	ldr	r3, [r3, #0]
 80015fa:	4618      	mov	r0, r3
 80015fc:	f7ff fd82 	bl	8001104 <lcd_print_num>
	} else {
	}
}
 8001600:	bf00      	nop
 8001602:	bd80      	pop	{r7, pc}
 8001604:	2000025c 	.word	0x2000025c
 8001608:	08005704 	.word	0x08005704
 800160c:	20000254 	.word	0x20000254
 8001610:	08005714 	.word	0x08005714

08001614 <enterRight>:

void enterRight() { //If the player enter correct code, perform these operations
 8001614:	b580      	push	{r7, lr}
 8001616:	af00      	add	r7, sp, #0
	playCorrect();
 8001618:	f000 f92a 	bl	8001870 <playCorrect>
	lcd_clear();
 800161c:	f7ff fd2c 	bl	8001078 <lcd_clear>
	lcd_set_position(3, 0);
 8001620:	2100      	movs	r1, #0
 8001622:	2003      	movs	r0, #3
 8001624:	f7ff fd44 	bl	80010b0 <lcd_set_position>
	lcd_print_string("Great Job!");
 8001628:	4807      	ldr	r0, [pc, #28]	; (8001648 <enterRight+0x34>)
 800162a:	f7ff fda3 	bl	8001174 <lcd_print_string>
	led_flash();
 800162e:	f7ff febf 	bl	80013b0 <led_flash>
	led_on(score + 4);
 8001632:	4b06      	ldr	r3, [pc, #24]	; (800164c <enterRight+0x38>)
 8001634:	681b      	ldr	r3, [r3, #0]
 8001636:	b2db      	uxtb	r3, r3
 8001638:	3304      	adds	r3, #4
 800163a:	b2db      	uxtb	r3, r3
 800163c:	4618      	mov	r0, r3
 800163e:	f7ff fea3 	bl	8001388 <led_on>
}
 8001642:	bf00      	nop
 8001644:	bd80      	pop	{r7, pc}
 8001646:	bf00      	nop
 8001648:	0800571c 	.word	0x0800571c
 800164c:	2000025c 	.word	0x2000025c

08001650 <enterWrong>:

void enterWrong() { //If the player enters an invalid code, perform these operations
 8001650:	b580      	push	{r7, lr}
 8001652:	af00      	add	r7, sp, #0
	playWrong();
 8001654:	f000 f932 	bl	80018bc <playWrong>
	lcd_clear();
 8001658:	f7ff fd0e 	bl	8001078 <lcd_clear>
	lcd_set_position(3, 0);
 800165c:	2100      	movs	r1, #0
 800165e:	2003      	movs	r0, #3
 8001660:	f7ff fd26 	bl	80010b0 <lcd_set_position>
	lcd_print_string("Try Again!");
 8001664:	4806      	ldr	r0, [pc, #24]	; (8001680 <enterWrong+0x30>)
 8001666:	f7ff fd85 	bl	8001174 <lcd_print_string>
	led_allOn();
 800166a:	f7ff fe61 	bl	8001330 <led_allOn>
	delay_1ms(1000);
 800166e:	f44f 707a 	mov.w	r0, #1000	; 0x3e8
 8001672:	f7ff fb3d 	bl	8000cf0 <delay_1ms>
	led_allOff();
 8001676:	f7ff fe75 	bl	8001364 <led_allOff>
}
 800167a:	bf00      	nop
 800167c:	bd80      	pop	{r7, pc}
 800167e:	bf00      	nop
 8001680:	08005728 	.word	0x08005728

08001684 <introScreen>:

void introScreen() { //The initial start screen of the game that runs once
 8001684:	b580      	push	{r7, lr}
 8001686:	af00      	add	r7, sp, #0
	lcd_set_position(0, 0);
 8001688:	2100      	movs	r1, #0
 800168a:	2000      	movs	r0, #0
 800168c:	f7ff fd10 	bl	80010b0 <lcd_set_position>
	lcd_print_string("Welcome to The");
 8001690:	4815      	ldr	r0, [pc, #84]	; (80016e8 <introScreen+0x64>)
 8001692:	f7ff fd6f 	bl	8001174 <lcd_print_string>
	lcd_set_position(0, 1);
 8001696:	2101      	movs	r1, #1
 8001698:	2000      	movs	r0, #0
 800169a:	f7ff fd09 	bl	80010b0 <lcd_set_position>
	lcd_print_string("Memory Challenge");
 800169e:	4813      	ldr	r0, [pc, #76]	; (80016ec <introScreen+0x68>)
 80016a0:	f7ff fd68 	bl	8001174 <lcd_print_string>
	delay_1ms(2000);
 80016a4:	f44f 60fa 	mov.w	r0, #2000	; 0x7d0
 80016a8:	f7ff fb22 	bl	8000cf0 <delay_1ms>
	lcd_clear();
 80016ac:	f7ff fce4 	bl	8001078 <lcd_clear>
	lcd_set_position(0, 0);
 80016b0:	2100      	movs	r1, #0
 80016b2:	2000      	movs	r0, #0
 80016b4:	f7ff fcfc 	bl	80010b0 <lcd_set_position>
	lcd_print_string("Enter A Value In");
 80016b8:	480d      	ldr	r0, [pc, #52]	; (80016f0 <introScreen+0x6c>)
 80016ba:	f7ff fd5b 	bl	8001174 <lcd_print_string>
	lcd_set_position(0, 1);
 80016be:	2101      	movs	r1, #1
 80016c0:	2000      	movs	r0, #0
 80016c2:	f7ff fcf5 	bl	80010b0 <lcd_set_position>
	lcd_print_string("The Range 1-9:");
 80016c6:	480b      	ldr	r0, [pc, #44]	; (80016f4 <introScreen+0x70>)
 80016c8:	f7ff fd54 	bl	8001174 <lcd_print_string>
	userIn = key_getchar();
 80016cc:	f7ff fc40 	bl	8000f50 <key_getchar>
 80016d0:	4603      	mov	r3, r0
 80016d2:	461a      	mov	r2, r3
 80016d4:	4b08      	ldr	r3, [pc, #32]	; (80016f8 <introScreen+0x74>)
 80016d6:	601a      	str	r2, [r3, #0]
	srand(userIn); //Sets the start seed for the random code generator
 80016d8:	4b07      	ldr	r3, [pc, #28]	; (80016f8 <introScreen+0x74>)
 80016da:	681b      	ldr	r3, [r3, #0]
 80016dc:	4618      	mov	r0, r3
 80016de:	f001 f857 	bl	8002790 <srand>
}
 80016e2:	bf00      	nop
 80016e4:	bd80      	pop	{r7, pc}
 80016e6:	bf00      	nop
 80016e8:	08005734 	.word	0x08005734
 80016ec:	08005744 	.word	0x08005744
 80016f0:	08005758 	.word	0x08005758
 80016f4:	0800576c 	.word	0x0800576c
 80016f8:	20000260 	.word	0x20000260

080016fc <isEntered>:

int isEntered() {//Recursive method for looping while rotary isn't pressed
 80016fc:	b580      	push	{r7, lr}
 80016fe:	af00      	add	r7, sp, #0
	entered = get_pressed();
 8001700:	f000 f84a 	bl	8001798 <get_pressed>
 8001704:	4602      	mov	r2, r0
 8001706:	4b0a      	ldr	r3, [pc, #40]	; (8001730 <isEntered+0x34>)
 8001708:	601a      	str	r2, [r3, #0]
	delay_1ms(1);
 800170a:	2001      	movs	r0, #1
 800170c:	f7ff faf0 	bl	8000cf0 <delay_1ms>
	if (entered == 1) {
 8001710:	4b07      	ldr	r3, [pc, #28]	; (8001730 <isEntered+0x34>)
 8001712:	681b      	ldr	r3, [r3, #0]
 8001714:	2b01      	cmp	r3, #1
 8001716:	d107      	bne.n	8001728 <isEntered+0x2c>
		if (track == 4) { //If codes match return 1
 8001718:	4b06      	ldr	r3, [pc, #24]	; (8001734 <isEntered+0x38>)
 800171a:	681b      	ldr	r3, [r3, #0]
 800171c:	2b04      	cmp	r3, #4
 800171e:	d101      	bne.n	8001724 <isEntered+0x28>
			return 1;
 8001720:	2301      	movs	r3, #1
 8001722:	e003      	b.n	800172c <isEntered+0x30>
		} else { //If codes don't match, return 0
			return 0;
 8001724:	2300      	movs	r3, #0
 8001726:	e001      	b.n	800172c <isEntered+0x30>
		}
	}else {
		isEntered();
 8001728:	f7ff ffe8 	bl	80016fc <isEntered>
	}
}
 800172c:	4618      	mov	r0, r3
 800172e:	bd80      	pop	{r7, pc}
 8001730:	20000264 	.word	0x20000264
 8001734:	20000268 	.word	0x20000268

08001738 <rotary_init>:
 */
#include "rotary.h"
#include "gpio.h"

static volatile GPIO* GPIO_A = 0x40020000;
void rotary_init() { //Init rotary encoder
 8001738:	b480      	push	{r7}
 800173a:	af00      	add	r7, sp, #0
	//Enable GPIOA with RCC
	*(RCC_AHB1ENR ) = *(RCC_AHB1ENR ) | (1);
 800173c:	4a14      	ldr	r2, [pc, #80]	; (8001790 <rotary_init+0x58>)
 800173e:	4b14      	ldr	r3, [pc, #80]	; (8001790 <rotary_init+0x58>)
 8001740:	681b      	ldr	r3, [r3, #0]
 8001742:	f043 0301 	orr.w	r3, r3, #1
 8001746:	6013      	str	r3, [r2, #0]
	//Set P12 to input
	GPIO_A->MODER &= ~0x03000000;
 8001748:	4b12      	ldr	r3, [pc, #72]	; (8001794 <rotary_init+0x5c>)
 800174a:	681b      	ldr	r3, [r3, #0]
 800174c:	4a11      	ldr	r2, [pc, #68]	; (8001794 <rotary_init+0x5c>)
 800174e:	6812      	ldr	r2, [r2, #0]
 8001750:	6812      	ldr	r2, [r2, #0]
 8001752:	f022 7240 	bic.w	r2, r2, #50331648	; 0x3000000
 8001756:	601a      	str	r2, [r3, #0]
	GPIO_A->MODER |= 0x00000000;
 8001758:	4b0e      	ldr	r3, [pc, #56]	; (8001794 <rotary_init+0x5c>)
 800175a:	681b      	ldr	r3, [r3, #0]
 800175c:	4a0d      	ldr	r2, [pc, #52]	; (8001794 <rotary_init+0x5c>)
 800175e:	6812      	ldr	r2, [r2, #0]
 8001760:	6812      	ldr	r2, [r2, #0]
 8001762:	601a      	str	r2, [r3, #0]
	//PUPDR to pull up
	GPIO_A->PUPDR &= ~0x03000000;
 8001764:	4b0b      	ldr	r3, [pc, #44]	; (8001794 <rotary_init+0x5c>)
 8001766:	681b      	ldr	r3, [r3, #0]
 8001768:	4a0a      	ldr	r2, [pc, #40]	; (8001794 <rotary_init+0x5c>)
 800176a:	6812      	ldr	r2, [r2, #0]
 800176c:	68d2      	ldr	r2, [r2, #12]
 800176e:	f022 7240 	bic.w	r2, r2, #50331648	; 0x3000000
 8001772:	60da      	str	r2, [r3, #12]
	GPIO_A->PUPDR |= 0x01000000;
 8001774:	4b07      	ldr	r3, [pc, #28]	; (8001794 <rotary_init+0x5c>)
 8001776:	681b      	ldr	r3, [r3, #0]
 8001778:	4a06      	ldr	r2, [pc, #24]	; (8001794 <rotary_init+0x5c>)
 800177a:	6812      	ldr	r2, [r2, #0]
 800177c:	68d2      	ldr	r2, [r2, #12]
 800177e:	f042 7280 	orr.w	r2, r2, #16777216	; 0x1000000
 8001782:	60da      	str	r2, [r3, #12]
}
 8001784:	bf00      	nop
 8001786:	46bd      	mov	sp, r7
 8001788:	f85d 7b04 	ldr.w	r7, [sp], #4
 800178c:	4770      	bx	lr
 800178e:	bf00      	nop
 8001790:	40023830 	.word	0x40023830
 8001794:	20000034 	.word	0x20000034

08001798 <get_pressed>:

int get_pressed(){ //Method to check if rotary encoder gets pressed
 8001798:	b480      	push	{r7}
 800179a:	b083      	sub	sp, #12
 800179c:	af00      	add	r7, sp, #0
	int pressed = (GPIO_A->IDR);
 800179e:	4b0b      	ldr	r3, [pc, #44]	; (80017cc <get_pressed+0x34>)
 80017a0:	681b      	ldr	r3, [r3, #0]
 80017a2:	691b      	ldr	r3, [r3, #16]
 80017a4:	607b      	str	r3, [r7, #4]
	pressed &= (0x1000);
 80017a6:	687b      	ldr	r3, [r7, #4]
 80017a8:	f403 5380 	and.w	r3, r3, #4096	; 0x1000
 80017ac:	607b      	str	r3, [r7, #4]
	pressed = pressed >> 12;
 80017ae:	687b      	ldr	r3, [r7, #4]
 80017b0:	131b      	asrs	r3, r3, #12
 80017b2:	607b      	str	r3, [r7, #4]
	if (pressed == 1){
 80017b4:	687b      	ldr	r3, [r7, #4]
 80017b6:	2b01      	cmp	r3, #1
 80017b8:	d101      	bne.n	80017be <get_pressed+0x26>
		return 0;
 80017ba:	2300      	movs	r3, #0
 80017bc:	e000      	b.n	80017c0 <get_pressed+0x28>
	}else{
		return 1;
 80017be:	2301      	movs	r3, #1
	}
}
 80017c0:	4618      	mov	r0, r3
 80017c2:	370c      	adds	r7, #12
 80017c4:	46bd      	mov	sp, r7
 80017c6:	f85d 7b04 	ldr.w	r7, [sp], #4
 80017ca:	4770      	bx	lr
 80017cc:	20000034 	.word	0x20000034

080017d0 <speaker_init>:
static volatile NOTE correct[] = { { Bb, eighthNote }, { C, eighthNote } };
static volatile NOTE wrong[] = { { G, eighthNote }, { F, eighthNote } };

static NOTE* pointer;

void speaker_init() {
 80017d0:	b480      	push	{r7}
 80017d2:	af00      	add	r7, sp, #0
	*(RCC_AHB1ENR ) |= (1 << GPIOB_EN); //Eanbles RCC and configures GPIOB
 80017d4:	4a22      	ldr	r2, [pc, #136]	; (8001860 <speaker_init+0x90>)
 80017d6:	4b22      	ldr	r3, [pc, #136]	; (8001860 <speaker_init+0x90>)
 80017d8:	681b      	ldr	r3, [r3, #0]
 80017da:	f043 0302 	orr.w	r3, r3, #2
 80017de:	6013      	str	r3, [r2, #0]
	*(RCC_APB1ENR ) |= (1 << TIM3_EN);
 80017e0:	4a20      	ldr	r2, [pc, #128]	; (8001864 <speaker_init+0x94>)
 80017e2:	4b20      	ldr	r3, [pc, #128]	; (8001864 <speaker_init+0x94>)
 80017e4:	681b      	ldr	r3, [r3, #0]
 80017e6:	f043 0302 	orr.w	r3, r3, #2
 80017ea:	6013      	str	r3, [r2, #0]

	GPIOB->MODER &= ~0x00003000; //Sets alt func
 80017ec:	4b1e      	ldr	r3, [pc, #120]	; (8001868 <speaker_init+0x98>)
 80017ee:	681b      	ldr	r3, [r3, #0]
 80017f0:	4a1d      	ldr	r2, [pc, #116]	; (8001868 <speaker_init+0x98>)
 80017f2:	6812      	ldr	r2, [r2, #0]
 80017f4:	6812      	ldr	r2, [r2, #0]
 80017f6:	f422 5240 	bic.w	r2, r2, #12288	; 0x3000
 80017fa:	601a      	str	r2, [r3, #0]
	GPIOB->MODER |= 0x00000200;
 80017fc:	4b1a      	ldr	r3, [pc, #104]	; (8001868 <speaker_init+0x98>)
 80017fe:	681b      	ldr	r3, [r3, #0]
 8001800:	4a19      	ldr	r2, [pc, #100]	; (8001868 <speaker_init+0x98>)
 8001802:	6812      	ldr	r2, [r2, #0]
 8001804:	6812      	ldr	r2, [r2, #0]
 8001806:	f442 7200 	orr.w	r2, r2, #512	; 0x200
 800180a:	601a      	str	r2, [r3, #0]

	GPIOB->AFRL &= ~0x00030000; //Maps pin to timer
 800180c:	4b16      	ldr	r3, [pc, #88]	; (8001868 <speaker_init+0x98>)
 800180e:	681b      	ldr	r3, [r3, #0]
 8001810:	4a15      	ldr	r2, [pc, #84]	; (8001868 <speaker_init+0x98>)
 8001812:	6812      	ldr	r2, [r2, #0]
 8001814:	6a12      	ldr	r2, [r2, #32]
 8001816:	f422 3240 	bic.w	r2, r2, #196608	; 0x30000
 800181a:	621a      	str	r2, [r3, #32]
	GPIOB->AFRL |= 0x00020000;
 800181c:	4b12      	ldr	r3, [pc, #72]	; (8001868 <speaker_init+0x98>)
 800181e:	681b      	ldr	r3, [r3, #0]
 8001820:	4a11      	ldr	r2, [pc, #68]	; (8001868 <speaker_init+0x98>)
 8001822:	6812      	ldr	r2, [r2, #0]
 8001824:	6a12      	ldr	r2, [r2, #32]
 8001826:	f442 3200 	orr.w	r2, r2, #131072	; 0x20000
 800182a:	621a      	str	r2, [r3, #32]

	TIM3->CCMR1 &= ~0x00000078; //Set PWM and enable CCRM1
 800182c:	4b0f      	ldr	r3, [pc, #60]	; (800186c <speaker_init+0x9c>)
 800182e:	681b      	ldr	r3, [r3, #0]
 8001830:	4a0e      	ldr	r2, [pc, #56]	; (800186c <speaker_init+0x9c>)
 8001832:	6812      	ldr	r2, [r2, #0]
 8001834:	6992      	ldr	r2, [r2, #24]
 8001836:	f022 0278 	bic.w	r2, r2, #120	; 0x78
 800183a:	619a      	str	r2, [r3, #24]
	TIM3->CCMR1 |= 0x00000078;
 800183c:	4b0b      	ldr	r3, [pc, #44]	; (800186c <speaker_init+0x9c>)
 800183e:	681b      	ldr	r3, [r3, #0]
 8001840:	4a0a      	ldr	r2, [pc, #40]	; (800186c <speaker_init+0x9c>)
 8001842:	6812      	ldr	r2, [r2, #0]
 8001844:	6992      	ldr	r2, [r2, #24]
 8001846:	f042 0278 	orr.w	r2, r2, #120	; 0x78
 800184a:	619a      	str	r2, [r3, #24]

	TIM3->PSC = 15; //Slows timer sampling
 800184c:	4b07      	ldr	r3, [pc, #28]	; (800186c <speaker_init+0x9c>)
 800184e:	681b      	ldr	r3, [r3, #0]
 8001850:	220f      	movs	r2, #15
 8001852:	629a      	str	r2, [r3, #40]	; 0x28
}
 8001854:	bf00      	nop
 8001856:	46bd      	mov	sp, r7
 8001858:	f85d 7b04 	ldr.w	r7, [sp], #4
 800185c:	4770      	bx	lr
 800185e:	bf00      	nop
 8001860:	40023830 	.word	0x40023830
 8001864:	40023840 	.word	0x40023840
 8001868:	20000038 	.word	0x20000038
 800186c:	2000003c 	.word	0x2000003c

08001870 <playCorrect>:

void playCorrect() { //Method called to play the notes for a right code
 8001870:	b580      	push	{r7, lr}
 8001872:	b082      	sub	sp, #8
 8001874:	af00      	add	r7, sp, #0
	pointer = &correct[0];
 8001876:	4b0f      	ldr	r3, [pc, #60]	; (80018b4 <playCorrect+0x44>)
 8001878:	4a0f      	ldr	r2, [pc, #60]	; (80018b8 <playCorrect+0x48>)
 800187a:	601a      	str	r2, [r3, #0]
	for (int i = 0; i < 2; i++) { //Loop to run through the whole array
 800187c:	2300      	movs	r3, #0
 800187e:	607b      	str	r3, [r7, #4]
 8001880:	e011      	b.n	80018a6 <playCorrect+0x36>
		playNote(pointer->dur, pointer->freq);
 8001882:	4b0c      	ldr	r3, [pc, #48]	; (80018b4 <playCorrect+0x44>)
 8001884:	681b      	ldr	r3, [r3, #0]
 8001886:	685a      	ldr	r2, [r3, #4]
 8001888:	4b0a      	ldr	r3, [pc, #40]	; (80018b4 <playCorrect+0x44>)
 800188a:	681b      	ldr	r3, [r3, #0]
 800188c:	681b      	ldr	r3, [r3, #0]
 800188e:	4619      	mov	r1, r3
 8001890:	4610      	mov	r0, r2
 8001892:	f000 f839 	bl	8001908 <playNote>
		pointer++;
 8001896:	4b07      	ldr	r3, [pc, #28]	; (80018b4 <playCorrect+0x44>)
 8001898:	681b      	ldr	r3, [r3, #0]
 800189a:	3308      	adds	r3, #8
 800189c:	4a05      	ldr	r2, [pc, #20]	; (80018b4 <playCorrect+0x44>)
 800189e:	6013      	str	r3, [r2, #0]
	for (int i = 0; i < 2; i++) { //Loop to run through the whole array
 80018a0:	687b      	ldr	r3, [r7, #4]
 80018a2:	3301      	adds	r3, #1
 80018a4:	607b      	str	r3, [r7, #4]
 80018a6:	687b      	ldr	r3, [r7, #4]
 80018a8:	2b01      	cmp	r3, #1
 80018aa:	ddea      	ble.n	8001882 <playCorrect+0x12>
	}
}
 80018ac:	bf00      	nop
 80018ae:	3708      	adds	r7, #8
 80018b0:	46bd      	mov	sp, r7
 80018b2:	bd80      	pop	{r7, pc}
 80018b4:	2000026c 	.word	0x2000026c
 80018b8:	20000040 	.word	0x20000040

080018bc <playWrong>:

void playWrong() { //Method called to play the notes for a wrong code
 80018bc:	b580      	push	{r7, lr}
 80018be:	b082      	sub	sp, #8
 80018c0:	af00      	add	r7, sp, #0
	pointer = &wrong[0];
 80018c2:	4b0f      	ldr	r3, [pc, #60]	; (8001900 <playWrong+0x44>)
 80018c4:	4a0f      	ldr	r2, [pc, #60]	; (8001904 <playWrong+0x48>)
 80018c6:	601a      	str	r2, [r3, #0]
	for (int i = 0; i < 2; i++) { //Loop to run through the whole array
 80018c8:	2300      	movs	r3, #0
 80018ca:	607b      	str	r3, [r7, #4]
 80018cc:	e011      	b.n	80018f2 <playWrong+0x36>
		playNote(pointer->dur, pointer->freq);
 80018ce:	4b0c      	ldr	r3, [pc, #48]	; (8001900 <playWrong+0x44>)
 80018d0:	681b      	ldr	r3, [r3, #0]
 80018d2:	685a      	ldr	r2, [r3, #4]
 80018d4:	4b0a      	ldr	r3, [pc, #40]	; (8001900 <playWrong+0x44>)
 80018d6:	681b      	ldr	r3, [r3, #0]
 80018d8:	681b      	ldr	r3, [r3, #0]
 80018da:	4619      	mov	r1, r3
 80018dc:	4610      	mov	r0, r2
 80018de:	f000 f813 	bl	8001908 <playNote>
		pointer++;
 80018e2:	4b07      	ldr	r3, [pc, #28]	; (8001900 <playWrong+0x44>)
 80018e4:	681b      	ldr	r3, [r3, #0]
 80018e6:	3308      	adds	r3, #8
 80018e8:	4a05      	ldr	r2, [pc, #20]	; (8001900 <playWrong+0x44>)
 80018ea:	6013      	str	r3, [r2, #0]
	for (int i = 0; i < 2; i++) { //Loop to run through the whole array
 80018ec:	687b      	ldr	r3, [r7, #4]
 80018ee:	3301      	adds	r3, #1
 80018f0:	607b      	str	r3, [r7, #4]
 80018f2:	687b      	ldr	r3, [r7, #4]
 80018f4:	2b01      	cmp	r3, #1
 80018f6:	ddea      	ble.n	80018ce <playWrong+0x12>
	}
}
 80018f8:	bf00      	nop
 80018fa:	3708      	adds	r7, #8
 80018fc:	46bd      	mov	sp, r7
 80018fe:	bd80      	pop	{r7, pc}
 8001900:	2000026c 	.word	0x2000026c
 8001904:	20000050 	.word	0x20000050

08001908 <playNote>:

void playNote(int dur, int freq) {	//Plays a specific note from song
 8001908:	b580      	push	{r7, lr}
 800190a:	b082      	sub	sp, #8
 800190c:	af00      	add	r7, sp, #0
 800190e:	6078      	str	r0, [r7, #4]
 8001910:	6039      	str	r1, [r7, #0]
	setFreq(freq);
 8001912:	6838      	ldr	r0, [r7, #0]
 8001914:	f000 f82a 	bl	800196c <setFreq>

	TIM3->CCER |= 0x1; //Start timer count
 8001918:	4b13      	ldr	r3, [pc, #76]	; (8001968 <playNote+0x60>)
 800191a:	681b      	ldr	r3, [r3, #0]
 800191c:	4a12      	ldr	r2, [pc, #72]	; (8001968 <playNote+0x60>)
 800191e:	6812      	ldr	r2, [r2, #0]
 8001920:	6a12      	ldr	r2, [r2, #32]
 8001922:	f042 0201 	orr.w	r2, r2, #1
 8001926:	621a      	str	r2, [r3, #32]
	TIM3->CR1 |= 0x1;
 8001928:	4b0f      	ldr	r3, [pc, #60]	; (8001968 <playNote+0x60>)
 800192a:	681b      	ldr	r3, [r3, #0]
 800192c:	4a0e      	ldr	r2, [pc, #56]	; (8001968 <playNote+0x60>)
 800192e:	6812      	ldr	r2, [r2, #0]
 8001930:	6812      	ldr	r2, [r2, #0]
 8001932:	f042 0201 	orr.w	r2, r2, #1
 8001936:	601a      	str	r2, [r3, #0]

	delay_1ms(dur); //Creates delay of the note played
 8001938:	6878      	ldr	r0, [r7, #4]
 800193a:	f7ff f9d9 	bl	8000cf0 <delay_1ms>

	TIM3->CCER &= ~(0x1); //End timer count
 800193e:	4b0a      	ldr	r3, [pc, #40]	; (8001968 <playNote+0x60>)
 8001940:	681b      	ldr	r3, [r3, #0]
 8001942:	4a09      	ldr	r2, [pc, #36]	; (8001968 <playNote+0x60>)
 8001944:	6812      	ldr	r2, [r2, #0]
 8001946:	6a12      	ldr	r2, [r2, #32]
 8001948:	f022 0201 	bic.w	r2, r2, #1
 800194c:	621a      	str	r2, [r3, #32]
	TIM3->CR1 &= ~(0x1);
 800194e:	4b06      	ldr	r3, [pc, #24]	; (8001968 <playNote+0x60>)
 8001950:	681b      	ldr	r3, [r3, #0]
 8001952:	4a05      	ldr	r2, [pc, #20]	; (8001968 <playNote+0x60>)
 8001954:	6812      	ldr	r2, [r2, #0]
 8001956:	6812      	ldr	r2, [r2, #0]
 8001958:	f022 0201 	bic.w	r2, r2, #1
 800195c:	601a      	str	r2, [r3, #0]
}
 800195e:	bf00      	nop
 8001960:	3708      	adds	r7, #8
 8001962:	46bd      	mov	sp, r7
 8001964:	bd80      	pop	{r7, pc}
 8001966:	bf00      	nop
 8001968:	2000003c 	.word	0x2000003c

0800196c <setFreq>:

void setFreq(int freq) { //Sets tone for each freq
 800196c:	b480      	push	{r7}
 800196e:	b085      	sub	sp, #20
 8001970:	af00      	add	r7, sp, #0
 8001972:	6078      	str	r0, [r7, #4]
	float tone = 1000000 / freq;
 8001974:	4a14      	ldr	r2, [pc, #80]	; (80019c8 <setFreq+0x5c>)
 8001976:	687b      	ldr	r3, [r7, #4]
 8001978:	fb92 f3f3 	sdiv	r3, r2, r3
 800197c:	ee07 3a90 	vmov	s15, r3
 8001980:	eef8 7ae7 	vcvt.f32.s32	s15, s15
 8001984:	edc7 7a03 	vstr	s15, [r7, #12]
	TIM3->ARR = tone;
 8001988:	4b10      	ldr	r3, [pc, #64]	; (80019cc <setFreq+0x60>)
 800198a:	681b      	ldr	r3, [r3, #0]
 800198c:	edd7 7a03 	vldr	s15, [r7, #12]
 8001990:	eefc 7ae7 	vcvt.u32.f32	s15, s15
 8001994:	ee17 2a90 	vmov	r2, s15
 8001998:	62da      	str	r2, [r3, #44]	; 0x2c
	tone = tone / 2;
 800199a:	ed97 7a03 	vldr	s14, [r7, #12]
 800199e:	eef0 6a00 	vmov.f32	s13, #0	; 0x40000000  2.0
 80019a2:	eec7 7a26 	vdiv.f32	s15, s14, s13
 80019a6:	edc7 7a03 	vstr	s15, [r7, #12]
	TIM3->CCR1 = tone;
 80019aa:	4b08      	ldr	r3, [pc, #32]	; (80019cc <setFreq+0x60>)
 80019ac:	681b      	ldr	r3, [r3, #0]
 80019ae:	edd7 7a03 	vldr	s15, [r7, #12]
 80019b2:	eefc 7ae7 	vcvt.u32.f32	s15, s15
 80019b6:	ee17 2a90 	vmov	r2, s15
 80019ba:	635a      	str	r2, [r3, #52]	; 0x34
}
 80019bc:	bf00      	nop
 80019be:	3714      	adds	r7, #20
 80019c0:	46bd      	mov	sp, r7
 80019c2:	f85d 7b04 	ldr.w	r7, [sp], #4
 80019c6:	4770      	bx	lr
 80019c8:	000f4240 	.word	0x000f4240
 80019cc:	2000003c 	.word	0x2000003c

080019d0 <Reset_Handler>:
Reset_Handler:

// enable floating point - added by DER

	# CPACR is located at address 0xE000ED88
	LDR.W   R0, =0xE000ED88
 80019d0:	f8df 0044 	ldr.w	r0, [pc, #68]	; 8001a18 <LoopForever+0x2>
	# Read CPACR
	LDR R1, [R0]
 80019d4:	6801      	ldr	r1, [r0, #0]
	# Set bits 20-23 to enable CP10 and CP11 coprocessors
	ORR R1, R1, #(0xF << 20)
 80019d6:	f441 0170 	orr.w	r1, r1, #15728640	; 0xf00000
	# Write back the modified value to the CPACR
	STR R1, [R0] // wait for store to complete
 80019da:	6001      	str	r1, [r0, #0]
	DSB
 80019dc:	f3bf 8f4f 	dsb	sy
	# reset pipeline now the FPU is enabled
	ISB
 80019e0:	f3bf 8f6f 	isb	sy

/* Copy the data segment initializers from flash to SRAM */
  movs	r1, #0
 80019e4:	2100      	movs	r1, #0
  b	LoopCopyDataInit
 80019e6:	e003      	b.n	80019f0 <LoopCopyDataInit>

080019e8 <CopyDataInit>:

CopyDataInit:
	ldr	r3, =_sidata
 80019e8:	4b0c      	ldr	r3, [pc, #48]	; (8001a1c <LoopForever+0x6>)
	ldr	r3, [r3, r1]
 80019ea:	585b      	ldr	r3, [r3, r1]
	str	r3, [r0, r1]
 80019ec:	5043      	str	r3, [r0, r1]
	adds	r1, r1, #4
 80019ee:	3104      	adds	r1, #4

080019f0 <LoopCopyDataInit>:

LoopCopyDataInit:
	ldr	r0, =_sdata
 80019f0:	480b      	ldr	r0, [pc, #44]	; (8001a20 <LoopForever+0xa>)
	ldr	r3, =_edata
 80019f2:	4b0c      	ldr	r3, [pc, #48]	; (8001a24 <LoopForever+0xe>)
	adds	r2, r0, r1
 80019f4:	1842      	adds	r2, r0, r1
	cmp	r2, r3
 80019f6:	429a      	cmp	r2, r3
	bcc	CopyDataInit
 80019f8:	d3f6      	bcc.n	80019e8 <CopyDataInit>
	ldr	r2, =_sbss
 80019fa:	4a0b      	ldr	r2, [pc, #44]	; (8001a28 <LoopForever+0x12>)
	b	LoopFillZerobss
 80019fc:	e002      	b.n	8001a04 <LoopFillZerobss>

080019fe <FillZerobss>:
/* Zero fill the bss segment. */
FillZerobss:
	movs r3, #0
 80019fe:	2300      	movs	r3, #0
 	str  r3, [r2]
 8001a00:	6013      	str	r3, [r2, #0]
	adds r2, r2, #4
 8001a02:	3204      	adds	r2, #4

08001a04 <LoopFillZerobss>:

LoopFillZerobss:
	ldr	r3, = _ebss
 8001a04:	4b09      	ldr	r3, [pc, #36]	; (8001a2c <LoopForever+0x16>)
	cmp	r2, r3
 8001a06:	429a      	cmp	r2, r3
	bcc	FillZerobss
 8001a08:	d3f9      	bcc.n	80019fe <FillZerobss>

/* Call the clock system intitialization function.*/
    bl  SystemInit
 8001a0a:	f3af 8000 	nop.w
/* Call static constructors */
    bl __libc_init_array
 8001a0e:	f000 f843 	bl	8001a98 <__libc_init_array>
/* Call the application's entry point.*/
	bl	main
 8001a12:	f7ff fced 	bl	80013f0 <main>

08001a16 <LoopForever>:

LoopForever:
    b LoopForever
 8001a16:	e7fe      	b.n	8001a16 <LoopForever>
	LDR.W   R0, =0xE000ED88
 8001a18:	e000ed88 	.word	0xe000ed88
	ldr	r3, =_sidata
 8001a1c:	08005aa0 	.word	0x08005aa0
	ldr	r0, =_sdata
 8001a20:	20000000 	.word	0x20000000
	ldr	r3, =_edata
 8001a24:	20000230 	.word	0x20000230
	ldr	r2, =_sbss
 8001a28:	20000230 	.word	0x20000230
	ldr	r3, = _ebss
 8001a2c:	20000280 	.word	0x20000280

08001a30 <ADC_IRQHandler>:
 * @retval : None
*/
    .section	.text.Default_Handler,"ax",%progbits
Default_Handler:
Infinite_Loop:
	b	Infinite_Loop
 8001a30:	e7fe      	b.n	8001a30 <ADC_IRQHandler>
	...

08001a34 <_sbrk>:
/**
 _sbrk
 Increase program data space. Malloc and related functions depend on this
**/
caddr_t _sbrk(int incr)
{
 8001a34:	b580      	push	{r7, lr}
 8001a36:	b084      	sub	sp, #16
 8001a38:	af00      	add	r7, sp, #0
 8001a3a:	6078      	str	r0, [r7, #4]
	extern char end asm("end");
	static char *heap_end;
	char *prev_heap_end;

	if (heap_end == 0)
 8001a3c:	4b11      	ldr	r3, [pc, #68]	; (8001a84 <_sbrk+0x50>)
 8001a3e:	681b      	ldr	r3, [r3, #0]
 8001a40:	2b00      	cmp	r3, #0
 8001a42:	d102      	bne.n	8001a4a <_sbrk+0x16>
		heap_end = &end;
 8001a44:	4b0f      	ldr	r3, [pc, #60]	; (8001a84 <_sbrk+0x50>)
 8001a46:	4a10      	ldr	r2, [pc, #64]	; (8001a88 <_sbrk+0x54>)
 8001a48:	601a      	str	r2, [r3, #0]

	prev_heap_end = heap_end;
 8001a4a:	4b0e      	ldr	r3, [pc, #56]	; (8001a84 <_sbrk+0x50>)
 8001a4c:	681b      	ldr	r3, [r3, #0]
 8001a4e:	60fb      	str	r3, [r7, #12]
	if (heap_end + incr > stack_ptr)
 8001a50:	4b0c      	ldr	r3, [pc, #48]	; (8001a84 <_sbrk+0x50>)
 8001a52:	681a      	ldr	r2, [r3, #0]
 8001a54:	687b      	ldr	r3, [r7, #4]
 8001a56:	4413      	add	r3, r2
 8001a58:	466a      	mov	r2, sp
 8001a5a:	4293      	cmp	r3, r2
 8001a5c:	d907      	bls.n	8001a6e <_sbrk+0x3a>
	{
		errno = ENOMEM;
 8001a5e:	f000 f815 	bl	8001a8c <__errno>
 8001a62:	4602      	mov	r2, r0
 8001a64:	230c      	movs	r3, #12
 8001a66:	6013      	str	r3, [r2, #0]
		return (caddr_t) -1;
 8001a68:	f04f 33ff 	mov.w	r3, #4294967295
 8001a6c:	e006      	b.n	8001a7c <_sbrk+0x48>
	}

	heap_end += incr;
 8001a6e:	4b05      	ldr	r3, [pc, #20]	; (8001a84 <_sbrk+0x50>)
 8001a70:	681a      	ldr	r2, [r3, #0]
 8001a72:	687b      	ldr	r3, [r7, #4]
 8001a74:	4413      	add	r3, r2
 8001a76:	4a03      	ldr	r2, [pc, #12]	; (8001a84 <_sbrk+0x50>)
 8001a78:	6013      	str	r3, [r2, #0]

	return (caddr_t) prev_heap_end;
 8001a7a:	68fb      	ldr	r3, [r7, #12]
}
 8001a7c:	4618      	mov	r0, r3
 8001a7e:	3710      	adds	r7, #16
 8001a80:	46bd      	mov	sp, r7
 8001a82:	bd80      	pop	{r7, pc}
 8001a84:	20000270 	.word	0x20000270
 8001a88:	20000280 	.word	0x20000280

08001a8c <__errno>:
 8001a8c:	4b01      	ldr	r3, [pc, #4]	; (8001a94 <__errno+0x8>)
 8001a8e:	6818      	ldr	r0, [r3, #0]
 8001a90:	4770      	bx	lr
 8001a92:	bf00      	nop
 8001a94:	20000060 	.word	0x20000060

08001a98 <__libc_init_array>:
 8001a98:	b570      	push	{r4, r5, r6, lr}
 8001a9a:	4e0d      	ldr	r6, [pc, #52]	; (8001ad0 <__libc_init_array+0x38>)
 8001a9c:	4c0d      	ldr	r4, [pc, #52]	; (8001ad4 <__libc_init_array+0x3c>)
 8001a9e:	1ba4      	subs	r4, r4, r6
 8001aa0:	10a4      	asrs	r4, r4, #2
 8001aa2:	2500      	movs	r5, #0
 8001aa4:	42a5      	cmp	r5, r4
 8001aa6:	d109      	bne.n	8001abc <__libc_init_array+0x24>
 8001aa8:	4e0b      	ldr	r6, [pc, #44]	; (8001ad8 <__libc_init_array+0x40>)
 8001aaa:	4c0c      	ldr	r4, [pc, #48]	; (8001adc <__libc_init_array+0x44>)
 8001aac:	f003 fdc8 	bl	8005640 <_init>
 8001ab0:	1ba4      	subs	r4, r4, r6
 8001ab2:	10a4      	asrs	r4, r4, #2
 8001ab4:	2500      	movs	r5, #0
 8001ab6:	42a5      	cmp	r5, r4
 8001ab8:	d105      	bne.n	8001ac6 <__libc_init_array+0x2e>
 8001aba:	bd70      	pop	{r4, r5, r6, pc}
 8001abc:	f856 3025 	ldr.w	r3, [r6, r5, lsl #2]
 8001ac0:	4798      	blx	r3
 8001ac2:	3501      	adds	r5, #1
 8001ac4:	e7ee      	b.n	8001aa4 <__libc_init_array+0xc>
 8001ac6:	f856 3025 	ldr.w	r3, [r6, r5, lsl #2]
 8001aca:	4798      	blx	r3
 8001acc:	3501      	adds	r5, #1
 8001ace:	e7f2      	b.n	8001ab6 <__libc_init_array+0x1e>
 8001ad0:	08005a98 	.word	0x08005a98
 8001ad4:	08005a98 	.word	0x08005a98
 8001ad8:	08005a98 	.word	0x08005a98
 8001adc:	08005a9c 	.word	0x08005a9c

08001ae0 <memset>:
 8001ae0:	4402      	add	r2, r0
 8001ae2:	4603      	mov	r3, r0
 8001ae4:	4293      	cmp	r3, r2
 8001ae6:	d100      	bne.n	8001aea <memset+0xa>
 8001ae8:	4770      	bx	lr
 8001aea:	f803 1b01 	strb.w	r1, [r3], #1
 8001aee:	e7f9      	b.n	8001ae4 <memset+0x4>

08001af0 <__cvt>:
 8001af0:	e92d 47ff 	stmdb	sp!, {r0, r1, r2, r3, r4, r5, r6, r7, r8, r9, sl, lr}
 8001af4:	ec55 4b10 	vmov	r4, r5, d0
 8001af8:	9f0d      	ldr	r7, [sp, #52]	; 0x34
 8001afa:	f8dd a030 	ldr.w	sl, [sp, #48]	; 0x30
 8001afe:	2d00      	cmp	r5, #0
 8001b00:	460e      	mov	r6, r1
 8001b02:	4691      	mov	r9, r2
 8001b04:	4619      	mov	r1, r3
 8001b06:	bfb8      	it	lt
 8001b08:	4622      	movlt	r2, r4
 8001b0a:	462b      	mov	r3, r5
 8001b0c:	f027 0720 	bic.w	r7, r7, #32
 8001b10:	bfbb      	ittet	lt
 8001b12:	f105 4300 	addlt.w	r3, r5, #2147483648	; 0x80000000
 8001b16:	461d      	movlt	r5, r3
 8001b18:	2300      	movge	r3, #0
 8001b1a:	232d      	movlt	r3, #45	; 0x2d
 8001b1c:	bfb8      	it	lt
 8001b1e:	4614      	movlt	r4, r2
 8001b20:	2f46      	cmp	r7, #70	; 0x46
 8001b22:	700b      	strb	r3, [r1, #0]
 8001b24:	d004      	beq.n	8001b30 <__cvt+0x40>
 8001b26:	2f45      	cmp	r7, #69	; 0x45
 8001b28:	d100      	bne.n	8001b2c <__cvt+0x3c>
 8001b2a:	3601      	adds	r6, #1
 8001b2c:	2102      	movs	r1, #2
 8001b2e:	e000      	b.n	8001b32 <__cvt+0x42>
 8001b30:	2103      	movs	r1, #3
 8001b32:	ab03      	add	r3, sp, #12
 8001b34:	9301      	str	r3, [sp, #4]
 8001b36:	ab02      	add	r3, sp, #8
 8001b38:	9300      	str	r3, [sp, #0]
 8001b3a:	4632      	mov	r2, r6
 8001b3c:	4653      	mov	r3, sl
 8001b3e:	ec45 4b10 	vmov	d0, r4, r5
 8001b42:	f001 fde9 	bl	8003718 <_dtoa_r>
 8001b46:	2f47      	cmp	r7, #71	; 0x47
 8001b48:	4680      	mov	r8, r0
 8001b4a:	d102      	bne.n	8001b52 <__cvt+0x62>
 8001b4c:	f019 0f01 	tst.w	r9, #1
 8001b50:	d026      	beq.n	8001ba0 <__cvt+0xb0>
 8001b52:	2f46      	cmp	r7, #70	; 0x46
 8001b54:	eb08 0906 	add.w	r9, r8, r6
 8001b58:	d111      	bne.n	8001b7e <__cvt+0x8e>
 8001b5a:	f898 3000 	ldrb.w	r3, [r8]
 8001b5e:	2b30      	cmp	r3, #48	; 0x30
 8001b60:	d10a      	bne.n	8001b78 <__cvt+0x88>
 8001b62:	2200      	movs	r2, #0
 8001b64:	2300      	movs	r3, #0
 8001b66:	4620      	mov	r0, r4
 8001b68:	4629      	mov	r1, r5
 8001b6a:	f7fe ffe1 	bl	8000b30 <__aeabi_dcmpeq>
 8001b6e:	b918      	cbnz	r0, 8001b78 <__cvt+0x88>
 8001b70:	f1c6 0601 	rsb	r6, r6, #1
 8001b74:	f8ca 6000 	str.w	r6, [sl]
 8001b78:	f8da 3000 	ldr.w	r3, [sl]
 8001b7c:	4499      	add	r9, r3
 8001b7e:	2200      	movs	r2, #0
 8001b80:	2300      	movs	r3, #0
 8001b82:	4620      	mov	r0, r4
 8001b84:	4629      	mov	r1, r5
 8001b86:	f7fe ffd3 	bl	8000b30 <__aeabi_dcmpeq>
 8001b8a:	b938      	cbnz	r0, 8001b9c <__cvt+0xac>
 8001b8c:	2230      	movs	r2, #48	; 0x30
 8001b8e:	9b03      	ldr	r3, [sp, #12]
 8001b90:	4599      	cmp	r9, r3
 8001b92:	d905      	bls.n	8001ba0 <__cvt+0xb0>
 8001b94:	1c59      	adds	r1, r3, #1
 8001b96:	9103      	str	r1, [sp, #12]
 8001b98:	701a      	strb	r2, [r3, #0]
 8001b9a:	e7f8      	b.n	8001b8e <__cvt+0x9e>
 8001b9c:	f8cd 900c 	str.w	r9, [sp, #12]
 8001ba0:	9b03      	ldr	r3, [sp, #12]
 8001ba2:	9a0e      	ldr	r2, [sp, #56]	; 0x38
 8001ba4:	eba3 0308 	sub.w	r3, r3, r8
 8001ba8:	4640      	mov	r0, r8
 8001baa:	6013      	str	r3, [r2, #0]
 8001bac:	b004      	add	sp, #16
 8001bae:	e8bd 87f0 	ldmia.w	sp!, {r4, r5, r6, r7, r8, r9, sl, pc}

08001bb2 <__exponent>:
 8001bb2:	b5f7      	push	{r0, r1, r2, r4, r5, r6, r7, lr}
 8001bb4:	4603      	mov	r3, r0
 8001bb6:	2900      	cmp	r1, #0
 8001bb8:	bfb8      	it	lt
 8001bba:	4249      	neglt	r1, r1
 8001bbc:	f803 2b02 	strb.w	r2, [r3], #2
 8001bc0:	bfb4      	ite	lt
 8001bc2:	222d      	movlt	r2, #45	; 0x2d
 8001bc4:	222b      	movge	r2, #43	; 0x2b
 8001bc6:	2909      	cmp	r1, #9
 8001bc8:	7042      	strb	r2, [r0, #1]
 8001bca:	dd20      	ble.n	8001c0e <__exponent+0x5c>
 8001bcc:	f10d 0207 	add.w	r2, sp, #7
 8001bd0:	4617      	mov	r7, r2
 8001bd2:	260a      	movs	r6, #10
 8001bd4:	fb91 f5f6 	sdiv	r5, r1, r6
 8001bd8:	fb06 1115 	mls	r1, r6, r5, r1
 8001bdc:	3130      	adds	r1, #48	; 0x30
 8001bde:	2d09      	cmp	r5, #9
 8001be0:	f802 1c01 	strb.w	r1, [r2, #-1]
 8001be4:	f102 34ff 	add.w	r4, r2, #4294967295
 8001be8:	4629      	mov	r1, r5
 8001bea:	dc09      	bgt.n	8001c00 <__exponent+0x4e>
 8001bec:	3130      	adds	r1, #48	; 0x30
 8001bee:	3a02      	subs	r2, #2
 8001bf0:	f804 1c01 	strb.w	r1, [r4, #-1]
 8001bf4:	42ba      	cmp	r2, r7
 8001bf6:	461c      	mov	r4, r3
 8001bf8:	d304      	bcc.n	8001c04 <__exponent+0x52>
 8001bfa:	1a20      	subs	r0, r4, r0
 8001bfc:	b003      	add	sp, #12
 8001bfe:	bdf0      	pop	{r4, r5, r6, r7, pc}
 8001c00:	4622      	mov	r2, r4
 8001c02:	e7e7      	b.n	8001bd4 <__exponent+0x22>
 8001c04:	f812 1b01 	ldrb.w	r1, [r2], #1
 8001c08:	f803 1b01 	strb.w	r1, [r3], #1
 8001c0c:	e7f2      	b.n	8001bf4 <__exponent+0x42>
 8001c0e:	2230      	movs	r2, #48	; 0x30
 8001c10:	461c      	mov	r4, r3
 8001c12:	4411      	add	r1, r2
 8001c14:	f804 2b02 	strb.w	r2, [r4], #2
 8001c18:	7059      	strb	r1, [r3, #1]
 8001c1a:	e7ee      	b.n	8001bfa <__exponent+0x48>

08001c1c <_printf_float>:
 8001c1c:	e92d 4ff0 	stmdb	sp!, {r4, r5, r6, r7, r8, r9, sl, fp, lr}
 8001c20:	b08d      	sub	sp, #52	; 0x34
 8001c22:	460c      	mov	r4, r1
 8001c24:	f8dd 8058 	ldr.w	r8, [sp, #88]	; 0x58
 8001c28:	4616      	mov	r6, r2
 8001c2a:	461f      	mov	r7, r3
 8001c2c:	4605      	mov	r5, r0
 8001c2e:	f002 fe63 	bl	80048f8 <_localeconv_r>
 8001c32:	6803      	ldr	r3, [r0, #0]
 8001c34:	9304      	str	r3, [sp, #16]
 8001c36:	4618      	mov	r0, r3
 8001c38:	f7fe fb00 	bl	800023c <strlen>
 8001c3c:	2300      	movs	r3, #0
 8001c3e:	930a      	str	r3, [sp, #40]	; 0x28
 8001c40:	f8d8 3000 	ldr.w	r3, [r8]
 8001c44:	9005      	str	r0, [sp, #20]
 8001c46:	3307      	adds	r3, #7
 8001c48:	f023 0307 	bic.w	r3, r3, #7
 8001c4c:	f103 0208 	add.w	r2, r3, #8
 8001c50:	f894 a018 	ldrb.w	sl, [r4, #24]
 8001c54:	f8d4 b000 	ldr.w	fp, [r4]
 8001c58:	f8c8 2000 	str.w	r2, [r8]
 8001c5c:	e9d3 2300 	ldrd	r2, r3, [r3]
 8001c60:	e9c4 2312 	strd	r2, r3, [r4, #72]	; 0x48
 8001c64:	e9d4 8912 	ldrd	r8, r9, [r4, #72]	; 0x48
 8001c68:	f029 4300 	bic.w	r3, r9, #2147483648	; 0x80000000
 8001c6c:	9307      	str	r3, [sp, #28]
 8001c6e:	f8cd 8018 	str.w	r8, [sp, #24]
 8001c72:	f04f 32ff 	mov.w	r2, #4294967295
 8001c76:	4ba5      	ldr	r3, [pc, #660]	; (8001f0c <_printf_float+0x2f0>)
 8001c78:	e9dd 0106 	ldrd	r0, r1, [sp, #24]
 8001c7c:	f7fe ff8a 	bl	8000b94 <__aeabi_dcmpun>
 8001c80:	2800      	cmp	r0, #0
 8001c82:	f040 81fb 	bne.w	800207c <_printf_float+0x460>
 8001c86:	f04f 32ff 	mov.w	r2, #4294967295
 8001c8a:	4ba0      	ldr	r3, [pc, #640]	; (8001f0c <_printf_float+0x2f0>)
 8001c8c:	e9dd 0106 	ldrd	r0, r1, [sp, #24]
 8001c90:	f7fe ff62 	bl	8000b58 <__aeabi_dcmple>
 8001c94:	2800      	cmp	r0, #0
 8001c96:	f040 81f1 	bne.w	800207c <_printf_float+0x460>
 8001c9a:	2200      	movs	r2, #0
 8001c9c:	2300      	movs	r3, #0
 8001c9e:	4640      	mov	r0, r8
 8001ca0:	4649      	mov	r1, r9
 8001ca2:	f7fe ff4f 	bl	8000b44 <__aeabi_dcmplt>
 8001ca6:	b110      	cbz	r0, 8001cae <_printf_float+0x92>
 8001ca8:	232d      	movs	r3, #45	; 0x2d
 8001caa:	f884 3043 	strb.w	r3, [r4, #67]	; 0x43
 8001cae:	4b98      	ldr	r3, [pc, #608]	; (8001f10 <_printf_float+0x2f4>)
 8001cb0:	4a98      	ldr	r2, [pc, #608]	; (8001f14 <_printf_float+0x2f8>)
 8001cb2:	f1ba 0f47 	cmp.w	sl, #71	; 0x47
 8001cb6:	bf8c      	ite	hi
 8001cb8:	4690      	movhi	r8, r2
 8001cba:	4698      	movls	r8, r3
 8001cbc:	2303      	movs	r3, #3
 8001cbe:	f02b 0204 	bic.w	r2, fp, #4
 8001cc2:	6123      	str	r3, [r4, #16]
 8001cc4:	6022      	str	r2, [r4, #0]
 8001cc6:	f04f 0900 	mov.w	r9, #0
 8001cca:	9700      	str	r7, [sp, #0]
 8001ccc:	4633      	mov	r3, r6
 8001cce:	aa0b      	add	r2, sp, #44	; 0x2c
 8001cd0:	4621      	mov	r1, r4
 8001cd2:	4628      	mov	r0, r5
 8001cd4:	f000 f9e2 	bl	800209c <_printf_common>
 8001cd8:	3001      	adds	r0, #1
 8001cda:	f040 8093 	bne.w	8001e04 <_printf_float+0x1e8>
 8001cde:	f04f 30ff 	mov.w	r0, #4294967295
 8001ce2:	b00d      	add	sp, #52	; 0x34
 8001ce4:	e8bd 8ff0 	ldmia.w	sp!, {r4, r5, r6, r7, r8, r9, sl, fp, pc}
 8001ce8:	6861      	ldr	r1, [r4, #4]
 8001cea:	1c4b      	adds	r3, r1, #1
 8001cec:	f44b 6280 	orr.w	r2, fp, #1024	; 0x400
 8001cf0:	d13f      	bne.n	8001d72 <_printf_float+0x156>
 8001cf2:	2306      	movs	r3, #6
 8001cf4:	6063      	str	r3, [r4, #4]
 8001cf6:	2300      	movs	r3, #0
 8001cf8:	9303      	str	r3, [sp, #12]
 8001cfa:	ab0a      	add	r3, sp, #40	; 0x28
 8001cfc:	9302      	str	r3, [sp, #8]
 8001cfe:	ab09      	add	r3, sp, #36	; 0x24
 8001d00:	9300      	str	r3, [sp, #0]
 8001d02:	ec49 8b10 	vmov	d0, r8, r9
 8001d06:	f10d 0323 	add.w	r3, sp, #35	; 0x23
 8001d0a:	6022      	str	r2, [r4, #0]
 8001d0c:	f8cd a004 	str.w	sl, [sp, #4]
 8001d10:	6861      	ldr	r1, [r4, #4]
 8001d12:	4628      	mov	r0, r5
 8001d14:	f7ff feec 	bl	8001af0 <__cvt>
 8001d18:	f00a 03df 	and.w	r3, sl, #223	; 0xdf
 8001d1c:	2b47      	cmp	r3, #71	; 0x47
 8001d1e:	4680      	mov	r8, r0
 8001d20:	d109      	bne.n	8001d36 <_printf_float+0x11a>
 8001d22:	9b09      	ldr	r3, [sp, #36]	; 0x24
 8001d24:	1cd8      	adds	r0, r3, #3
 8001d26:	db02      	blt.n	8001d2e <_printf_float+0x112>
 8001d28:	6862      	ldr	r2, [r4, #4]
 8001d2a:	4293      	cmp	r3, r2
 8001d2c:	dd57      	ble.n	8001dde <_printf_float+0x1c2>
 8001d2e:	f1aa 0a02 	sub.w	sl, sl, #2
 8001d32:	fa5f fa8a 	uxtb.w	sl, sl
 8001d36:	f1ba 0f65 	cmp.w	sl, #101	; 0x65
 8001d3a:	9909      	ldr	r1, [sp, #36]	; 0x24
 8001d3c:	d834      	bhi.n	8001da8 <_printf_float+0x18c>
 8001d3e:	3901      	subs	r1, #1
 8001d40:	4652      	mov	r2, sl
 8001d42:	f104 0050 	add.w	r0, r4, #80	; 0x50
 8001d46:	9109      	str	r1, [sp, #36]	; 0x24
 8001d48:	f7ff ff33 	bl	8001bb2 <__exponent>
 8001d4c:	9a0a      	ldr	r2, [sp, #40]	; 0x28
 8001d4e:	1883      	adds	r3, r0, r2
 8001d50:	2a01      	cmp	r2, #1
 8001d52:	4681      	mov	r9, r0
 8001d54:	6123      	str	r3, [r4, #16]
 8001d56:	dc02      	bgt.n	8001d5e <_printf_float+0x142>
 8001d58:	6822      	ldr	r2, [r4, #0]
 8001d5a:	07d1      	lsls	r1, r2, #31
 8001d5c:	d501      	bpl.n	8001d62 <_printf_float+0x146>
 8001d5e:	3301      	adds	r3, #1
 8001d60:	6123      	str	r3, [r4, #16]
 8001d62:	f89d 3023 	ldrb.w	r3, [sp, #35]	; 0x23
 8001d66:	2b00      	cmp	r3, #0
 8001d68:	d0af      	beq.n	8001cca <_printf_float+0xae>
 8001d6a:	232d      	movs	r3, #45	; 0x2d
 8001d6c:	f884 3043 	strb.w	r3, [r4, #67]	; 0x43
 8001d70:	e7ab      	b.n	8001cca <_printf_float+0xae>
 8001d72:	f1ba 0f67 	cmp.w	sl, #103	; 0x67
 8001d76:	d002      	beq.n	8001d7e <_printf_float+0x162>
 8001d78:	f1ba 0f47 	cmp.w	sl, #71	; 0x47
 8001d7c:	d1bb      	bne.n	8001cf6 <_printf_float+0xda>
 8001d7e:	b189      	cbz	r1, 8001da4 <_printf_float+0x188>
 8001d80:	2300      	movs	r3, #0
 8001d82:	9303      	str	r3, [sp, #12]
 8001d84:	ab0a      	add	r3, sp, #40	; 0x28
 8001d86:	9302      	str	r3, [sp, #8]
 8001d88:	ab09      	add	r3, sp, #36	; 0x24
 8001d8a:	9300      	str	r3, [sp, #0]
 8001d8c:	ec49 8b10 	vmov	d0, r8, r9
 8001d90:	6022      	str	r2, [r4, #0]
 8001d92:	f8cd a004 	str.w	sl, [sp, #4]
 8001d96:	f10d 0323 	add.w	r3, sp, #35	; 0x23
 8001d9a:	4628      	mov	r0, r5
 8001d9c:	f7ff fea8 	bl	8001af0 <__cvt>
 8001da0:	4680      	mov	r8, r0
 8001da2:	e7be      	b.n	8001d22 <_printf_float+0x106>
 8001da4:	2301      	movs	r3, #1
 8001da6:	e7a5      	b.n	8001cf4 <_printf_float+0xd8>
 8001da8:	f1ba 0f66 	cmp.w	sl, #102	; 0x66
 8001dac:	d119      	bne.n	8001de2 <_printf_float+0x1c6>
 8001dae:	2900      	cmp	r1, #0
 8001db0:	6863      	ldr	r3, [r4, #4]
 8001db2:	dd0c      	ble.n	8001dce <_printf_float+0x1b2>
 8001db4:	6121      	str	r1, [r4, #16]
 8001db6:	b913      	cbnz	r3, 8001dbe <_printf_float+0x1a2>
 8001db8:	6822      	ldr	r2, [r4, #0]
 8001dba:	07d2      	lsls	r2, r2, #31
 8001dbc:	d502      	bpl.n	8001dc4 <_printf_float+0x1a8>
 8001dbe:	3301      	adds	r3, #1
 8001dc0:	440b      	add	r3, r1
 8001dc2:	6123      	str	r3, [r4, #16]
 8001dc4:	9b09      	ldr	r3, [sp, #36]	; 0x24
 8001dc6:	65a3      	str	r3, [r4, #88]	; 0x58
 8001dc8:	f04f 0900 	mov.w	r9, #0
 8001dcc:	e7c9      	b.n	8001d62 <_printf_float+0x146>
 8001dce:	b913      	cbnz	r3, 8001dd6 <_printf_float+0x1ba>
 8001dd0:	6822      	ldr	r2, [r4, #0]
 8001dd2:	07d0      	lsls	r0, r2, #31
 8001dd4:	d501      	bpl.n	8001dda <_printf_float+0x1be>
 8001dd6:	3302      	adds	r3, #2
 8001dd8:	e7f3      	b.n	8001dc2 <_printf_float+0x1a6>
 8001dda:	2301      	movs	r3, #1
 8001ddc:	e7f1      	b.n	8001dc2 <_printf_float+0x1a6>
 8001dde:	f04f 0a67 	mov.w	sl, #103	; 0x67
 8001de2:	9b09      	ldr	r3, [sp, #36]	; 0x24
 8001de4:	9a0a      	ldr	r2, [sp, #40]	; 0x28
 8001de6:	4293      	cmp	r3, r2
 8001de8:	db05      	blt.n	8001df6 <_printf_float+0x1da>
 8001dea:	6822      	ldr	r2, [r4, #0]
 8001dec:	6123      	str	r3, [r4, #16]
 8001dee:	07d1      	lsls	r1, r2, #31
 8001df0:	d5e8      	bpl.n	8001dc4 <_printf_float+0x1a8>
 8001df2:	3301      	adds	r3, #1
 8001df4:	e7e5      	b.n	8001dc2 <_printf_float+0x1a6>
 8001df6:	2b00      	cmp	r3, #0
 8001df8:	bfd4      	ite	le
 8001dfa:	f1c3 0302 	rsble	r3, r3, #2
 8001dfe:	2301      	movgt	r3, #1
 8001e00:	4413      	add	r3, r2
 8001e02:	e7de      	b.n	8001dc2 <_printf_float+0x1a6>
 8001e04:	6823      	ldr	r3, [r4, #0]
 8001e06:	055a      	lsls	r2, r3, #21
 8001e08:	d407      	bmi.n	8001e1a <_printf_float+0x1fe>
 8001e0a:	6923      	ldr	r3, [r4, #16]
 8001e0c:	4642      	mov	r2, r8
 8001e0e:	4631      	mov	r1, r6
 8001e10:	4628      	mov	r0, r5
 8001e12:	47b8      	blx	r7
 8001e14:	3001      	adds	r0, #1
 8001e16:	d12b      	bne.n	8001e70 <_printf_float+0x254>
 8001e18:	e761      	b.n	8001cde <_printf_float+0xc2>
 8001e1a:	f1ba 0f65 	cmp.w	sl, #101	; 0x65
 8001e1e:	f240 80e2 	bls.w	8001fe6 <_printf_float+0x3ca>
 8001e22:	2200      	movs	r2, #0
 8001e24:	2300      	movs	r3, #0
 8001e26:	e9d4 0112 	ldrd	r0, r1, [r4, #72]	; 0x48
 8001e2a:	f7fe fe81 	bl	8000b30 <__aeabi_dcmpeq>
 8001e2e:	2800      	cmp	r0, #0
 8001e30:	d03c      	beq.n	8001eac <_printf_float+0x290>
 8001e32:	2301      	movs	r3, #1
 8001e34:	4a38      	ldr	r2, [pc, #224]	; (8001f18 <_printf_float+0x2fc>)
 8001e36:	4631      	mov	r1, r6
 8001e38:	4628      	mov	r0, r5
 8001e3a:	47b8      	blx	r7
 8001e3c:	3001      	adds	r0, #1
 8001e3e:	f43f af4e 	beq.w	8001cde <_printf_float+0xc2>
 8001e42:	9b0a      	ldr	r3, [sp, #40]	; 0x28
 8001e44:	9a09      	ldr	r2, [sp, #36]	; 0x24
 8001e46:	429a      	cmp	r2, r3
 8001e48:	db02      	blt.n	8001e50 <_printf_float+0x234>
 8001e4a:	6823      	ldr	r3, [r4, #0]
 8001e4c:	07d8      	lsls	r0, r3, #31
 8001e4e:	d50f      	bpl.n	8001e70 <_printf_float+0x254>
 8001e50:	9b05      	ldr	r3, [sp, #20]
 8001e52:	9a04      	ldr	r2, [sp, #16]
 8001e54:	4631      	mov	r1, r6
 8001e56:	4628      	mov	r0, r5
 8001e58:	47b8      	blx	r7
 8001e5a:	3001      	adds	r0, #1
 8001e5c:	f43f af3f 	beq.w	8001cde <_printf_float+0xc2>
 8001e60:	f04f 0800 	mov.w	r8, #0
 8001e64:	f104 091a 	add.w	r9, r4, #26
 8001e68:	9b0a      	ldr	r3, [sp, #40]	; 0x28
 8001e6a:	3b01      	subs	r3, #1
 8001e6c:	4598      	cmp	r8, r3
 8001e6e:	db12      	blt.n	8001e96 <_printf_float+0x27a>
 8001e70:	6823      	ldr	r3, [r4, #0]
 8001e72:	079b      	lsls	r3, r3, #30
 8001e74:	d509      	bpl.n	8001e8a <_printf_float+0x26e>
 8001e76:	f04f 0800 	mov.w	r8, #0
 8001e7a:	f104 0919 	add.w	r9, r4, #25
 8001e7e:	68e3      	ldr	r3, [r4, #12]
 8001e80:	9a0b      	ldr	r2, [sp, #44]	; 0x2c
 8001e82:	1a9b      	subs	r3, r3, r2
 8001e84:	4598      	cmp	r8, r3
 8001e86:	f2c0 80ee 	blt.w	8002066 <_printf_float+0x44a>
 8001e8a:	68e0      	ldr	r0, [r4, #12]
 8001e8c:	9b0b      	ldr	r3, [sp, #44]	; 0x2c
 8001e8e:	4298      	cmp	r0, r3
 8001e90:	bfb8      	it	lt
 8001e92:	4618      	movlt	r0, r3
 8001e94:	e725      	b.n	8001ce2 <_printf_float+0xc6>
 8001e96:	2301      	movs	r3, #1
 8001e98:	464a      	mov	r2, r9
 8001e9a:	4631      	mov	r1, r6
 8001e9c:	4628      	mov	r0, r5
 8001e9e:	47b8      	blx	r7
 8001ea0:	3001      	adds	r0, #1
 8001ea2:	f43f af1c 	beq.w	8001cde <_printf_float+0xc2>
 8001ea6:	f108 0801 	add.w	r8, r8, #1
 8001eaa:	e7dd      	b.n	8001e68 <_printf_float+0x24c>
 8001eac:	9b09      	ldr	r3, [sp, #36]	; 0x24
 8001eae:	2b00      	cmp	r3, #0
 8001eb0:	dc34      	bgt.n	8001f1c <_printf_float+0x300>
 8001eb2:	2301      	movs	r3, #1
 8001eb4:	4a18      	ldr	r2, [pc, #96]	; (8001f18 <_printf_float+0x2fc>)
 8001eb6:	4631      	mov	r1, r6
 8001eb8:	4628      	mov	r0, r5
 8001eba:	47b8      	blx	r7
 8001ebc:	3001      	adds	r0, #1
 8001ebe:	f43f af0e 	beq.w	8001cde <_printf_float+0xc2>
 8001ec2:	9b09      	ldr	r3, [sp, #36]	; 0x24
 8001ec4:	b923      	cbnz	r3, 8001ed0 <_printf_float+0x2b4>
 8001ec6:	9b0a      	ldr	r3, [sp, #40]	; 0x28
 8001ec8:	b913      	cbnz	r3, 8001ed0 <_printf_float+0x2b4>
 8001eca:	6823      	ldr	r3, [r4, #0]
 8001ecc:	07d9      	lsls	r1, r3, #31
 8001ece:	d5cf      	bpl.n	8001e70 <_printf_float+0x254>
 8001ed0:	9b05      	ldr	r3, [sp, #20]
 8001ed2:	9a04      	ldr	r2, [sp, #16]
 8001ed4:	4631      	mov	r1, r6
 8001ed6:	4628      	mov	r0, r5
 8001ed8:	47b8      	blx	r7
 8001eda:	3001      	adds	r0, #1
 8001edc:	f43f aeff 	beq.w	8001cde <_printf_float+0xc2>
 8001ee0:	f04f 0900 	mov.w	r9, #0
 8001ee4:	f104 0a1a 	add.w	sl, r4, #26
 8001ee8:	9b09      	ldr	r3, [sp, #36]	; 0x24
 8001eea:	425b      	negs	r3, r3
 8001eec:	4599      	cmp	r9, r3
 8001eee:	db01      	blt.n	8001ef4 <_printf_float+0x2d8>
 8001ef0:	9b0a      	ldr	r3, [sp, #40]	; 0x28
 8001ef2:	e78b      	b.n	8001e0c <_printf_float+0x1f0>
 8001ef4:	2301      	movs	r3, #1
 8001ef6:	4652      	mov	r2, sl
 8001ef8:	4631      	mov	r1, r6
 8001efa:	4628      	mov	r0, r5
 8001efc:	47b8      	blx	r7
 8001efe:	3001      	adds	r0, #1
 8001f00:	f43f aeed 	beq.w	8001cde <_printf_float+0xc2>
 8001f04:	f109 0901 	add.w	r9, r9, #1
 8001f08:	e7ee      	b.n	8001ee8 <_printf_float+0x2cc>
 8001f0a:	bf00      	nop
 8001f0c:	7fefffff 	.word	0x7fefffff
 8001f10:	0800577b 	.word	0x0800577b
 8001f14:	0800577f 	.word	0x0800577f
 8001f18:	0800578b 	.word	0x0800578b
 8001f1c:	9a0a      	ldr	r2, [sp, #40]	; 0x28
 8001f1e:	6da3      	ldr	r3, [r4, #88]	; 0x58
 8001f20:	429a      	cmp	r2, r3
 8001f22:	bfa8      	it	ge
 8001f24:	461a      	movge	r2, r3
 8001f26:	2a00      	cmp	r2, #0
 8001f28:	4691      	mov	r9, r2
 8001f2a:	dc38      	bgt.n	8001f9e <_printf_float+0x382>
 8001f2c:	f104 031a 	add.w	r3, r4, #26
 8001f30:	f04f 0b00 	mov.w	fp, #0
 8001f34:	ea29 79e9 	bic.w	r9, r9, r9, asr #31
 8001f38:	9306      	str	r3, [sp, #24]
 8001f3a:	f8d4 a058 	ldr.w	sl, [r4, #88]	; 0x58
 8001f3e:	ebaa 0309 	sub.w	r3, sl, r9
 8001f42:	459b      	cmp	fp, r3
 8001f44:	db33      	blt.n	8001fae <_printf_float+0x392>
 8001f46:	9b0a      	ldr	r3, [sp, #40]	; 0x28
 8001f48:	9a09      	ldr	r2, [sp, #36]	; 0x24
 8001f4a:	429a      	cmp	r2, r3
 8001f4c:	db3a      	blt.n	8001fc4 <_printf_float+0x3a8>
 8001f4e:	6823      	ldr	r3, [r4, #0]
 8001f50:	07da      	lsls	r2, r3, #31
 8001f52:	d437      	bmi.n	8001fc4 <_printf_float+0x3a8>
 8001f54:	9b0a      	ldr	r3, [sp, #40]	; 0x28
 8001f56:	9909      	ldr	r1, [sp, #36]	; 0x24
 8001f58:	eba3 020a 	sub.w	r2, r3, sl
 8001f5c:	eba3 0901 	sub.w	r9, r3, r1
 8001f60:	4591      	cmp	r9, r2
 8001f62:	bfa8      	it	ge
 8001f64:	4691      	movge	r9, r2
 8001f66:	f1b9 0f00 	cmp.w	r9, #0
 8001f6a:	dc33      	bgt.n	8001fd4 <_printf_float+0x3b8>
 8001f6c:	f04f 0800 	mov.w	r8, #0
 8001f70:	ea29 79e9 	bic.w	r9, r9, r9, asr #31
 8001f74:	f104 0a1a 	add.w	sl, r4, #26
 8001f78:	9a09      	ldr	r2, [sp, #36]	; 0x24
 8001f7a:	9b0a      	ldr	r3, [sp, #40]	; 0x28
 8001f7c:	1a9b      	subs	r3, r3, r2
 8001f7e:	eba3 0309 	sub.w	r3, r3, r9
 8001f82:	4598      	cmp	r8, r3
 8001f84:	f6bf af74 	bge.w	8001e70 <_printf_float+0x254>
 8001f88:	2301      	movs	r3, #1
 8001f8a:	4652      	mov	r2, sl
 8001f8c:	4631      	mov	r1, r6
 8001f8e:	4628      	mov	r0, r5
 8001f90:	47b8      	blx	r7
 8001f92:	3001      	adds	r0, #1
 8001f94:	f43f aea3 	beq.w	8001cde <_printf_float+0xc2>
 8001f98:	f108 0801 	add.w	r8, r8, #1
 8001f9c:	e7ec      	b.n	8001f78 <_printf_float+0x35c>
 8001f9e:	4613      	mov	r3, r2
 8001fa0:	4631      	mov	r1, r6
 8001fa2:	4642      	mov	r2, r8
 8001fa4:	4628      	mov	r0, r5
 8001fa6:	47b8      	blx	r7
 8001fa8:	3001      	adds	r0, #1
 8001faa:	d1bf      	bne.n	8001f2c <_printf_float+0x310>
 8001fac:	e697      	b.n	8001cde <_printf_float+0xc2>
 8001fae:	2301      	movs	r3, #1
 8001fb0:	9a06      	ldr	r2, [sp, #24]
 8001fb2:	4631      	mov	r1, r6
 8001fb4:	4628      	mov	r0, r5
 8001fb6:	47b8      	blx	r7
 8001fb8:	3001      	adds	r0, #1
 8001fba:	f43f ae90 	beq.w	8001cde <_printf_float+0xc2>
 8001fbe:	f10b 0b01 	add.w	fp, fp, #1
 8001fc2:	e7ba      	b.n	8001f3a <_printf_float+0x31e>
 8001fc4:	9b05      	ldr	r3, [sp, #20]
 8001fc6:	9a04      	ldr	r2, [sp, #16]
 8001fc8:	4631      	mov	r1, r6
 8001fca:	4628      	mov	r0, r5
 8001fcc:	47b8      	blx	r7
 8001fce:	3001      	adds	r0, #1
 8001fd0:	d1c0      	bne.n	8001f54 <_printf_float+0x338>
 8001fd2:	e684      	b.n	8001cde <_printf_float+0xc2>
 8001fd4:	464b      	mov	r3, r9
 8001fd6:	eb08 020a 	add.w	r2, r8, sl
 8001fda:	4631      	mov	r1, r6
 8001fdc:	4628      	mov	r0, r5
 8001fde:	47b8      	blx	r7
 8001fe0:	3001      	adds	r0, #1
 8001fe2:	d1c3      	bne.n	8001f6c <_printf_float+0x350>
 8001fe4:	e67b      	b.n	8001cde <_printf_float+0xc2>
 8001fe6:	9a0a      	ldr	r2, [sp, #40]	; 0x28
 8001fe8:	2a01      	cmp	r2, #1
 8001fea:	dc01      	bgt.n	8001ff0 <_printf_float+0x3d4>
 8001fec:	07db      	lsls	r3, r3, #31
 8001fee:	d537      	bpl.n	8002060 <_printf_float+0x444>
 8001ff0:	2301      	movs	r3, #1
 8001ff2:	4642      	mov	r2, r8
 8001ff4:	4631      	mov	r1, r6
 8001ff6:	4628      	mov	r0, r5
 8001ff8:	47b8      	blx	r7
 8001ffa:	3001      	adds	r0, #1
 8001ffc:	f43f ae6f 	beq.w	8001cde <_printf_float+0xc2>
 8002000:	9b05      	ldr	r3, [sp, #20]
 8002002:	9a04      	ldr	r2, [sp, #16]
 8002004:	4631      	mov	r1, r6
 8002006:	4628      	mov	r0, r5
 8002008:	47b8      	blx	r7
 800200a:	3001      	adds	r0, #1
 800200c:	f43f ae67 	beq.w	8001cde <_printf_float+0xc2>
 8002010:	2200      	movs	r2, #0
 8002012:	2300      	movs	r3, #0
 8002014:	e9d4 0112 	ldrd	r0, r1, [r4, #72]	; 0x48
 8002018:	f7fe fd8a 	bl	8000b30 <__aeabi_dcmpeq>
 800201c:	b158      	cbz	r0, 8002036 <_printf_float+0x41a>
 800201e:	f04f 0800 	mov.w	r8, #0
 8002022:	f104 0a1a 	add.w	sl, r4, #26
 8002026:	9b0a      	ldr	r3, [sp, #40]	; 0x28
 8002028:	3b01      	subs	r3, #1
 800202a:	4598      	cmp	r8, r3
 800202c:	db0d      	blt.n	800204a <_printf_float+0x42e>
 800202e:	464b      	mov	r3, r9
 8002030:	f104 0250 	add.w	r2, r4, #80	; 0x50
 8002034:	e6eb      	b.n	8001e0e <_printf_float+0x1f2>
 8002036:	9b0a      	ldr	r3, [sp, #40]	; 0x28
 8002038:	f108 0201 	add.w	r2, r8, #1
 800203c:	3b01      	subs	r3, #1
 800203e:	4631      	mov	r1, r6
 8002040:	4628      	mov	r0, r5
 8002042:	47b8      	blx	r7
 8002044:	3001      	adds	r0, #1
 8002046:	d1f2      	bne.n	800202e <_printf_float+0x412>
 8002048:	e649      	b.n	8001cde <_printf_float+0xc2>
 800204a:	2301      	movs	r3, #1
 800204c:	4652      	mov	r2, sl
 800204e:	4631      	mov	r1, r6
 8002050:	4628      	mov	r0, r5
 8002052:	47b8      	blx	r7
 8002054:	3001      	adds	r0, #1
 8002056:	f43f ae42 	beq.w	8001cde <_printf_float+0xc2>
 800205a:	f108 0801 	add.w	r8, r8, #1
 800205e:	e7e2      	b.n	8002026 <_printf_float+0x40a>
 8002060:	2301      	movs	r3, #1
 8002062:	4642      	mov	r2, r8
 8002064:	e7eb      	b.n	800203e <_printf_float+0x422>
 8002066:	2301      	movs	r3, #1
 8002068:	464a      	mov	r2, r9
 800206a:	4631      	mov	r1, r6
 800206c:	4628      	mov	r0, r5
 800206e:	47b8      	blx	r7
 8002070:	3001      	adds	r0, #1
 8002072:	f43f ae34 	beq.w	8001cde <_printf_float+0xc2>
 8002076:	f108 0801 	add.w	r8, r8, #1
 800207a:	e700      	b.n	8001e7e <_printf_float+0x262>
 800207c:	4642      	mov	r2, r8
 800207e:	464b      	mov	r3, r9
 8002080:	4640      	mov	r0, r8
 8002082:	4649      	mov	r1, r9
 8002084:	f7fe fd86 	bl	8000b94 <__aeabi_dcmpun>
 8002088:	2800      	cmp	r0, #0
 800208a:	f43f ae2d 	beq.w	8001ce8 <_printf_float+0xcc>
 800208e:	4b01      	ldr	r3, [pc, #4]	; (8002094 <_printf_float+0x478>)
 8002090:	4a01      	ldr	r2, [pc, #4]	; (8002098 <_printf_float+0x47c>)
 8002092:	e60e      	b.n	8001cb2 <_printf_float+0x96>
 8002094:	08005783 	.word	0x08005783
 8002098:	08005787 	.word	0x08005787

0800209c <_printf_common>:
 800209c:	e92d 47f0 	stmdb	sp!, {r4, r5, r6, r7, r8, r9, sl, lr}
 80020a0:	4691      	mov	r9, r2
 80020a2:	461f      	mov	r7, r3
 80020a4:	688a      	ldr	r2, [r1, #8]
 80020a6:	690b      	ldr	r3, [r1, #16]
 80020a8:	f8dd 8020 	ldr.w	r8, [sp, #32]
 80020ac:	4293      	cmp	r3, r2
 80020ae:	bfb8      	it	lt
 80020b0:	4613      	movlt	r3, r2
 80020b2:	f8c9 3000 	str.w	r3, [r9]
 80020b6:	f891 2043 	ldrb.w	r2, [r1, #67]	; 0x43
 80020ba:	4606      	mov	r6, r0
 80020bc:	460c      	mov	r4, r1
 80020be:	b112      	cbz	r2, 80020c6 <_printf_common+0x2a>
 80020c0:	3301      	adds	r3, #1
 80020c2:	f8c9 3000 	str.w	r3, [r9]
 80020c6:	6823      	ldr	r3, [r4, #0]
 80020c8:	0699      	lsls	r1, r3, #26
 80020ca:	bf42      	ittt	mi
 80020cc:	f8d9 3000 	ldrmi.w	r3, [r9]
 80020d0:	3302      	addmi	r3, #2
 80020d2:	f8c9 3000 	strmi.w	r3, [r9]
 80020d6:	6825      	ldr	r5, [r4, #0]
 80020d8:	f015 0506 	ands.w	r5, r5, #6
 80020dc:	d107      	bne.n	80020ee <_printf_common+0x52>
 80020de:	f104 0a19 	add.w	sl, r4, #25
 80020e2:	68e3      	ldr	r3, [r4, #12]
 80020e4:	f8d9 2000 	ldr.w	r2, [r9]
 80020e8:	1a9b      	subs	r3, r3, r2
 80020ea:	429d      	cmp	r5, r3
 80020ec:	db29      	blt.n	8002142 <_printf_common+0xa6>
 80020ee:	f894 3043 	ldrb.w	r3, [r4, #67]	; 0x43
 80020f2:	6822      	ldr	r2, [r4, #0]
 80020f4:	3300      	adds	r3, #0
 80020f6:	bf18      	it	ne
 80020f8:	2301      	movne	r3, #1
 80020fa:	0692      	lsls	r2, r2, #26
 80020fc:	d42e      	bmi.n	800215c <_printf_common+0xc0>
 80020fe:	f104 0243 	add.w	r2, r4, #67	; 0x43
 8002102:	4639      	mov	r1, r7
 8002104:	4630      	mov	r0, r6
 8002106:	47c0      	blx	r8
 8002108:	3001      	adds	r0, #1
 800210a:	d021      	beq.n	8002150 <_printf_common+0xb4>
 800210c:	6823      	ldr	r3, [r4, #0]
 800210e:	68e5      	ldr	r5, [r4, #12]
 8002110:	f8d9 2000 	ldr.w	r2, [r9]
 8002114:	f003 0306 	and.w	r3, r3, #6
 8002118:	2b04      	cmp	r3, #4
 800211a:	bf08      	it	eq
 800211c:	1aad      	subeq	r5, r5, r2
 800211e:	68a3      	ldr	r3, [r4, #8]
 8002120:	6922      	ldr	r2, [r4, #16]
 8002122:	bf0c      	ite	eq
 8002124:	ea25 75e5 	biceq.w	r5, r5, r5, asr #31
 8002128:	2500      	movne	r5, #0
 800212a:	4293      	cmp	r3, r2
 800212c:	bfc4      	itt	gt
 800212e:	1a9b      	subgt	r3, r3, r2
 8002130:	18ed      	addgt	r5, r5, r3
 8002132:	f04f 0900 	mov.w	r9, #0
 8002136:	341a      	adds	r4, #26
 8002138:	454d      	cmp	r5, r9
 800213a:	d11b      	bne.n	8002174 <_printf_common+0xd8>
 800213c:	2000      	movs	r0, #0
 800213e:	e8bd 87f0 	ldmia.w	sp!, {r4, r5, r6, r7, r8, r9, sl, pc}
 8002142:	2301      	movs	r3, #1
 8002144:	4652      	mov	r2, sl
 8002146:	4639      	mov	r1, r7
 8002148:	4630      	mov	r0, r6
 800214a:	47c0      	blx	r8
 800214c:	3001      	adds	r0, #1
 800214e:	d103      	bne.n	8002158 <_printf_common+0xbc>
 8002150:	f04f 30ff 	mov.w	r0, #4294967295
 8002154:	e8bd 87f0 	ldmia.w	sp!, {r4, r5, r6, r7, r8, r9, sl, pc}
 8002158:	3501      	adds	r5, #1
 800215a:	e7c2      	b.n	80020e2 <_printf_common+0x46>
 800215c:	18e1      	adds	r1, r4, r3
 800215e:	1c5a      	adds	r2, r3, #1
 8002160:	2030      	movs	r0, #48	; 0x30
 8002162:	f881 0043 	strb.w	r0, [r1, #67]	; 0x43
 8002166:	4422      	add	r2, r4
 8002168:	f894 1045 	ldrb.w	r1, [r4, #69]	; 0x45
 800216c:	f882 1043 	strb.w	r1, [r2, #67]	; 0x43
 8002170:	3302      	adds	r3, #2
 8002172:	e7c4      	b.n	80020fe <_printf_common+0x62>
 8002174:	2301      	movs	r3, #1
 8002176:	4622      	mov	r2, r4
 8002178:	4639      	mov	r1, r7
 800217a:	4630      	mov	r0, r6
 800217c:	47c0      	blx	r8
 800217e:	3001      	adds	r0, #1
 8002180:	d0e6      	beq.n	8002150 <_printf_common+0xb4>
 8002182:	f109 0901 	add.w	r9, r9, #1
 8002186:	e7d7      	b.n	8002138 <_printf_common+0x9c>

08002188 <_printf_i>:
 8002188:	e92d 43f0 	stmdb	sp!, {r4, r5, r6, r7, r8, r9, lr}
 800218c:	4617      	mov	r7, r2
 800218e:	7e0a      	ldrb	r2, [r1, #24]
 8002190:	b085      	sub	sp, #20
 8002192:	2a6e      	cmp	r2, #110	; 0x6e
 8002194:	4698      	mov	r8, r3
 8002196:	4606      	mov	r6, r0
 8002198:	460c      	mov	r4, r1
 800219a:	9b0c      	ldr	r3, [sp, #48]	; 0x30
 800219c:	f101 0e43 	add.w	lr, r1, #67	; 0x43
 80021a0:	f000 80bc 	beq.w	800231c <_printf_i+0x194>
 80021a4:	d81a      	bhi.n	80021dc <_printf_i+0x54>
 80021a6:	2a63      	cmp	r2, #99	; 0x63
 80021a8:	d02e      	beq.n	8002208 <_printf_i+0x80>
 80021aa:	d80a      	bhi.n	80021c2 <_printf_i+0x3a>
 80021ac:	2a00      	cmp	r2, #0
 80021ae:	f000 80c8 	beq.w	8002342 <_printf_i+0x1ba>
 80021b2:	2a58      	cmp	r2, #88	; 0x58
 80021b4:	f000 808a 	beq.w	80022cc <_printf_i+0x144>
 80021b8:	f104 0542 	add.w	r5, r4, #66	; 0x42
 80021bc:	f884 2042 	strb.w	r2, [r4, #66]	; 0x42
 80021c0:	e02a      	b.n	8002218 <_printf_i+0x90>
 80021c2:	2a64      	cmp	r2, #100	; 0x64
 80021c4:	d001      	beq.n	80021ca <_printf_i+0x42>
 80021c6:	2a69      	cmp	r2, #105	; 0x69
 80021c8:	d1f6      	bne.n	80021b8 <_printf_i+0x30>
 80021ca:	6821      	ldr	r1, [r4, #0]
 80021cc:	681a      	ldr	r2, [r3, #0]
 80021ce:	f011 0f80 	tst.w	r1, #128	; 0x80
 80021d2:	d023      	beq.n	800221c <_printf_i+0x94>
 80021d4:	1d11      	adds	r1, r2, #4
 80021d6:	6019      	str	r1, [r3, #0]
 80021d8:	6813      	ldr	r3, [r2, #0]
 80021da:	e027      	b.n	800222c <_printf_i+0xa4>
 80021dc:	2a73      	cmp	r2, #115	; 0x73
 80021de:	f000 80b4 	beq.w	800234a <_printf_i+0x1c2>
 80021e2:	d808      	bhi.n	80021f6 <_printf_i+0x6e>
 80021e4:	2a6f      	cmp	r2, #111	; 0x6f
 80021e6:	d02a      	beq.n	800223e <_printf_i+0xb6>
 80021e8:	2a70      	cmp	r2, #112	; 0x70
 80021ea:	d1e5      	bne.n	80021b8 <_printf_i+0x30>
 80021ec:	680a      	ldr	r2, [r1, #0]
 80021ee:	f042 0220 	orr.w	r2, r2, #32
 80021f2:	600a      	str	r2, [r1, #0]
 80021f4:	e003      	b.n	80021fe <_printf_i+0x76>
 80021f6:	2a75      	cmp	r2, #117	; 0x75
 80021f8:	d021      	beq.n	800223e <_printf_i+0xb6>
 80021fa:	2a78      	cmp	r2, #120	; 0x78
 80021fc:	d1dc      	bne.n	80021b8 <_printf_i+0x30>
 80021fe:	2278      	movs	r2, #120	; 0x78
 8002200:	f884 2045 	strb.w	r2, [r4, #69]	; 0x45
 8002204:	496e      	ldr	r1, [pc, #440]	; (80023c0 <_printf_i+0x238>)
 8002206:	e064      	b.n	80022d2 <_printf_i+0x14a>
 8002208:	681a      	ldr	r2, [r3, #0]
 800220a:	f101 0542 	add.w	r5, r1, #66	; 0x42
 800220e:	1d11      	adds	r1, r2, #4
 8002210:	6019      	str	r1, [r3, #0]
 8002212:	6813      	ldr	r3, [r2, #0]
 8002214:	f884 3042 	strb.w	r3, [r4, #66]	; 0x42
 8002218:	2301      	movs	r3, #1
 800221a:	e0a3      	b.n	8002364 <_printf_i+0x1dc>
 800221c:	f011 0f40 	tst.w	r1, #64	; 0x40
 8002220:	f102 0104 	add.w	r1, r2, #4
 8002224:	6019      	str	r1, [r3, #0]
 8002226:	d0d7      	beq.n	80021d8 <_printf_i+0x50>
 8002228:	f9b2 3000 	ldrsh.w	r3, [r2]
 800222c:	2b00      	cmp	r3, #0
 800222e:	da03      	bge.n	8002238 <_printf_i+0xb0>
 8002230:	222d      	movs	r2, #45	; 0x2d
 8002232:	425b      	negs	r3, r3
 8002234:	f884 2043 	strb.w	r2, [r4, #67]	; 0x43
 8002238:	4962      	ldr	r1, [pc, #392]	; (80023c4 <_printf_i+0x23c>)
 800223a:	220a      	movs	r2, #10
 800223c:	e017      	b.n	800226e <_printf_i+0xe6>
 800223e:	6820      	ldr	r0, [r4, #0]
 8002240:	6819      	ldr	r1, [r3, #0]
 8002242:	f010 0f80 	tst.w	r0, #128	; 0x80
 8002246:	d003      	beq.n	8002250 <_printf_i+0xc8>
 8002248:	1d08      	adds	r0, r1, #4
 800224a:	6018      	str	r0, [r3, #0]
 800224c:	680b      	ldr	r3, [r1, #0]
 800224e:	e006      	b.n	800225e <_printf_i+0xd6>
 8002250:	f010 0f40 	tst.w	r0, #64	; 0x40
 8002254:	f101 0004 	add.w	r0, r1, #4
 8002258:	6018      	str	r0, [r3, #0]
 800225a:	d0f7      	beq.n	800224c <_printf_i+0xc4>
 800225c:	880b      	ldrh	r3, [r1, #0]
 800225e:	4959      	ldr	r1, [pc, #356]	; (80023c4 <_printf_i+0x23c>)
 8002260:	2a6f      	cmp	r2, #111	; 0x6f
 8002262:	bf14      	ite	ne
 8002264:	220a      	movne	r2, #10
 8002266:	2208      	moveq	r2, #8
 8002268:	2000      	movs	r0, #0
 800226a:	f884 0043 	strb.w	r0, [r4, #67]	; 0x43
 800226e:	6865      	ldr	r5, [r4, #4]
 8002270:	60a5      	str	r5, [r4, #8]
 8002272:	2d00      	cmp	r5, #0
 8002274:	f2c0 809c 	blt.w	80023b0 <_printf_i+0x228>
 8002278:	6820      	ldr	r0, [r4, #0]
 800227a:	f020 0004 	bic.w	r0, r0, #4
 800227e:	6020      	str	r0, [r4, #0]
 8002280:	2b00      	cmp	r3, #0
 8002282:	d13f      	bne.n	8002304 <_printf_i+0x17c>
 8002284:	2d00      	cmp	r5, #0
 8002286:	f040 8095 	bne.w	80023b4 <_printf_i+0x22c>
 800228a:	4675      	mov	r5, lr
 800228c:	2a08      	cmp	r2, #8
 800228e:	d10b      	bne.n	80022a8 <_printf_i+0x120>
 8002290:	6823      	ldr	r3, [r4, #0]
 8002292:	07da      	lsls	r2, r3, #31
 8002294:	d508      	bpl.n	80022a8 <_printf_i+0x120>
 8002296:	6923      	ldr	r3, [r4, #16]
 8002298:	6862      	ldr	r2, [r4, #4]
 800229a:	429a      	cmp	r2, r3
 800229c:	bfde      	ittt	le
 800229e:	2330      	movle	r3, #48	; 0x30
 80022a0:	f805 3c01 	strble.w	r3, [r5, #-1]
 80022a4:	f105 35ff 	addle.w	r5, r5, #4294967295
 80022a8:	ebae 0305 	sub.w	r3, lr, r5
 80022ac:	6123      	str	r3, [r4, #16]
 80022ae:	f8cd 8000 	str.w	r8, [sp]
 80022b2:	463b      	mov	r3, r7
 80022b4:	aa03      	add	r2, sp, #12
 80022b6:	4621      	mov	r1, r4
 80022b8:	4630      	mov	r0, r6
 80022ba:	f7ff feef 	bl	800209c <_printf_common>
 80022be:	3001      	adds	r0, #1
 80022c0:	d155      	bne.n	800236e <_printf_i+0x1e6>
 80022c2:	f04f 30ff 	mov.w	r0, #4294967295
 80022c6:	b005      	add	sp, #20
 80022c8:	e8bd 83f0 	ldmia.w	sp!, {r4, r5, r6, r7, r8, r9, pc}
 80022cc:	f881 2045 	strb.w	r2, [r1, #69]	; 0x45
 80022d0:	493c      	ldr	r1, [pc, #240]	; (80023c4 <_printf_i+0x23c>)
 80022d2:	6822      	ldr	r2, [r4, #0]
 80022d4:	6818      	ldr	r0, [r3, #0]
 80022d6:	f012 0f80 	tst.w	r2, #128	; 0x80
 80022da:	f100 0504 	add.w	r5, r0, #4
 80022de:	601d      	str	r5, [r3, #0]
 80022e0:	d001      	beq.n	80022e6 <_printf_i+0x15e>
 80022e2:	6803      	ldr	r3, [r0, #0]
 80022e4:	e002      	b.n	80022ec <_printf_i+0x164>
 80022e6:	0655      	lsls	r5, r2, #25
 80022e8:	d5fb      	bpl.n	80022e2 <_printf_i+0x15a>
 80022ea:	8803      	ldrh	r3, [r0, #0]
 80022ec:	07d0      	lsls	r0, r2, #31
 80022ee:	bf44      	itt	mi
 80022f0:	f042 0220 	orrmi.w	r2, r2, #32
 80022f4:	6022      	strmi	r2, [r4, #0]
 80022f6:	b91b      	cbnz	r3, 8002300 <_printf_i+0x178>
 80022f8:	6822      	ldr	r2, [r4, #0]
 80022fa:	f022 0220 	bic.w	r2, r2, #32
 80022fe:	6022      	str	r2, [r4, #0]
 8002300:	2210      	movs	r2, #16
 8002302:	e7b1      	b.n	8002268 <_printf_i+0xe0>
 8002304:	4675      	mov	r5, lr
 8002306:	fbb3 f0f2 	udiv	r0, r3, r2
 800230a:	fb02 3310 	mls	r3, r2, r0, r3
 800230e:	5ccb      	ldrb	r3, [r1, r3]
 8002310:	f805 3d01 	strb.w	r3, [r5, #-1]!
 8002314:	4603      	mov	r3, r0
 8002316:	2800      	cmp	r0, #0
 8002318:	d1f5      	bne.n	8002306 <_printf_i+0x17e>
 800231a:	e7b7      	b.n	800228c <_printf_i+0x104>
 800231c:	6808      	ldr	r0, [r1, #0]
 800231e:	681a      	ldr	r2, [r3, #0]
 8002320:	6949      	ldr	r1, [r1, #20]
 8002322:	f010 0f80 	tst.w	r0, #128	; 0x80
 8002326:	d004      	beq.n	8002332 <_printf_i+0x1aa>
 8002328:	1d10      	adds	r0, r2, #4
 800232a:	6018      	str	r0, [r3, #0]
 800232c:	6813      	ldr	r3, [r2, #0]
 800232e:	6019      	str	r1, [r3, #0]
 8002330:	e007      	b.n	8002342 <_printf_i+0x1ba>
 8002332:	f010 0f40 	tst.w	r0, #64	; 0x40
 8002336:	f102 0004 	add.w	r0, r2, #4
 800233a:	6018      	str	r0, [r3, #0]
 800233c:	6813      	ldr	r3, [r2, #0]
 800233e:	d0f6      	beq.n	800232e <_printf_i+0x1a6>
 8002340:	8019      	strh	r1, [r3, #0]
 8002342:	2300      	movs	r3, #0
 8002344:	6123      	str	r3, [r4, #16]
 8002346:	4675      	mov	r5, lr
 8002348:	e7b1      	b.n	80022ae <_printf_i+0x126>
 800234a:	681a      	ldr	r2, [r3, #0]
 800234c:	1d11      	adds	r1, r2, #4
 800234e:	6019      	str	r1, [r3, #0]
 8002350:	6815      	ldr	r5, [r2, #0]
 8002352:	6862      	ldr	r2, [r4, #4]
 8002354:	2100      	movs	r1, #0
 8002356:	4628      	mov	r0, r5
 8002358:	f7fd ff7a 	bl	8000250 <memchr>
 800235c:	b108      	cbz	r0, 8002362 <_printf_i+0x1da>
 800235e:	1b40      	subs	r0, r0, r5
 8002360:	6060      	str	r0, [r4, #4]
 8002362:	6863      	ldr	r3, [r4, #4]
 8002364:	6123      	str	r3, [r4, #16]
 8002366:	2300      	movs	r3, #0
 8002368:	f884 3043 	strb.w	r3, [r4, #67]	; 0x43
 800236c:	e79f      	b.n	80022ae <_printf_i+0x126>
 800236e:	6923      	ldr	r3, [r4, #16]
 8002370:	462a      	mov	r2, r5
 8002372:	4639      	mov	r1, r7
 8002374:	4630      	mov	r0, r6
 8002376:	47c0      	blx	r8
 8002378:	3001      	adds	r0, #1
 800237a:	d0a2      	beq.n	80022c2 <_printf_i+0x13a>
 800237c:	6823      	ldr	r3, [r4, #0]
 800237e:	079b      	lsls	r3, r3, #30
 8002380:	d507      	bpl.n	8002392 <_printf_i+0x20a>
 8002382:	2500      	movs	r5, #0
 8002384:	f104 0919 	add.w	r9, r4, #25
 8002388:	68e3      	ldr	r3, [r4, #12]
 800238a:	9a03      	ldr	r2, [sp, #12]
 800238c:	1a9b      	subs	r3, r3, r2
 800238e:	429d      	cmp	r5, r3
 8002390:	db05      	blt.n	800239e <_printf_i+0x216>
 8002392:	68e0      	ldr	r0, [r4, #12]
 8002394:	9b03      	ldr	r3, [sp, #12]
 8002396:	4298      	cmp	r0, r3
 8002398:	bfb8      	it	lt
 800239a:	4618      	movlt	r0, r3
 800239c:	e793      	b.n	80022c6 <_printf_i+0x13e>
 800239e:	2301      	movs	r3, #1
 80023a0:	464a      	mov	r2, r9
 80023a2:	4639      	mov	r1, r7
 80023a4:	4630      	mov	r0, r6
 80023a6:	47c0      	blx	r8
 80023a8:	3001      	adds	r0, #1
 80023aa:	d08a      	beq.n	80022c2 <_printf_i+0x13a>
 80023ac:	3501      	adds	r5, #1
 80023ae:	e7eb      	b.n	8002388 <_printf_i+0x200>
 80023b0:	2b00      	cmp	r3, #0
 80023b2:	d1a7      	bne.n	8002304 <_printf_i+0x17c>
 80023b4:	780b      	ldrb	r3, [r1, #0]
 80023b6:	f884 3042 	strb.w	r3, [r4, #66]	; 0x42
 80023ba:	f104 0542 	add.w	r5, r4, #66	; 0x42
 80023be:	e765      	b.n	800228c <_printf_i+0x104>
 80023c0:	0800579e 	.word	0x0800579e
 80023c4:	0800578d 	.word	0x0800578d

080023c8 <_scanf_float>:
 80023c8:	e92d 4ff0 	stmdb	sp!, {r4, r5, r6, r7, r8, r9, sl, fp, lr}
 80023cc:	469a      	mov	sl, r3
 80023ce:	688b      	ldr	r3, [r1, #8]
 80023d0:	4616      	mov	r6, r2
 80023d2:	1e5a      	subs	r2, r3, #1
 80023d4:	f5b2 7fae 	cmp.w	r2, #348	; 0x15c
 80023d8:	b087      	sub	sp, #28
 80023da:	bf83      	ittte	hi
 80023dc:	f46f 72ae 	mvnhi.w	r2, #348	; 0x15c
 80023e0:	189b      	addhi	r3, r3, r2
 80023e2:	9301      	strhi	r3, [sp, #4]
 80023e4:	2300      	movls	r3, #0
 80023e6:	bf86      	itte	hi
 80023e8:	f240 135d 	movwhi	r3, #349	; 0x15d
 80023ec:	608b      	strhi	r3, [r1, #8]
 80023ee:	9301      	strls	r3, [sp, #4]
 80023f0:	680b      	ldr	r3, [r1, #0]
 80023f2:	4688      	mov	r8, r1
 80023f4:	f443 63f0 	orr.w	r3, r3, #1920	; 0x780
 80023f8:	f848 3b1c 	str.w	r3, [r8], #28
 80023fc:	f04f 0b00 	mov.w	fp, #0
 8002400:	4607      	mov	r7, r0
 8002402:	460c      	mov	r4, r1
 8002404:	4645      	mov	r5, r8
 8002406:	465a      	mov	r2, fp
 8002408:	f8cd b010 	str.w	fp, [sp, #16]
 800240c:	f8cd b00c 	str.w	fp, [sp, #12]
 8002410:	46d9      	mov	r9, fp
 8002412:	f8cd b008 	str.w	fp, [sp, #8]
 8002416:	68a1      	ldr	r1, [r4, #8]
 8002418:	b181      	cbz	r1, 800243c <_scanf_float+0x74>
 800241a:	6833      	ldr	r3, [r6, #0]
 800241c:	781b      	ldrb	r3, [r3, #0]
 800241e:	2b49      	cmp	r3, #73	; 0x49
 8002420:	d071      	beq.n	8002506 <_scanf_float+0x13e>
 8002422:	d84d      	bhi.n	80024c0 <_scanf_float+0xf8>
 8002424:	2b39      	cmp	r3, #57	; 0x39
 8002426:	d840      	bhi.n	80024aa <_scanf_float+0xe2>
 8002428:	2b31      	cmp	r3, #49	; 0x31
 800242a:	f080 8088 	bcs.w	800253e <_scanf_float+0x176>
 800242e:	2b2d      	cmp	r3, #45	; 0x2d
 8002430:	f000 8090 	beq.w	8002554 <_scanf_float+0x18c>
 8002434:	d815      	bhi.n	8002462 <_scanf_float+0x9a>
 8002436:	2b2b      	cmp	r3, #43	; 0x2b
 8002438:	f000 808c 	beq.w	8002554 <_scanf_float+0x18c>
 800243c:	f1b9 0f00 	cmp.w	r9, #0
 8002440:	d003      	beq.n	800244a <_scanf_float+0x82>
 8002442:	6823      	ldr	r3, [r4, #0]
 8002444:	f423 7380 	bic.w	r3, r3, #256	; 0x100
 8002448:	6023      	str	r3, [r4, #0]
 800244a:	3a01      	subs	r2, #1
 800244c:	2a01      	cmp	r2, #1
 800244e:	f200 80ea 	bhi.w	8002626 <_scanf_float+0x25e>
 8002452:	4545      	cmp	r5, r8
 8002454:	f200 80dc 	bhi.w	8002610 <_scanf_float+0x248>
 8002458:	2601      	movs	r6, #1
 800245a:	4630      	mov	r0, r6
 800245c:	b007      	add	sp, #28
 800245e:	e8bd 8ff0 	ldmia.w	sp!, {r4, r5, r6, r7, r8, r9, sl, fp, pc}
 8002462:	2b2e      	cmp	r3, #46	; 0x2e
 8002464:	f000 809f 	beq.w	80025a6 <_scanf_float+0x1de>
 8002468:	2b30      	cmp	r3, #48	; 0x30
 800246a:	d1e7      	bne.n	800243c <_scanf_float+0x74>
 800246c:	6820      	ldr	r0, [r4, #0]
 800246e:	f410 7f80 	tst.w	r0, #256	; 0x100
 8002472:	d064      	beq.n	800253e <_scanf_float+0x176>
 8002474:	9b01      	ldr	r3, [sp, #4]
 8002476:	f020 0080 	bic.w	r0, r0, #128	; 0x80
 800247a:	6020      	str	r0, [r4, #0]
 800247c:	f109 0901 	add.w	r9, r9, #1
 8002480:	b11b      	cbz	r3, 800248a <_scanf_float+0xc2>
 8002482:	3b01      	subs	r3, #1
 8002484:	3101      	adds	r1, #1
 8002486:	9301      	str	r3, [sp, #4]
 8002488:	60a1      	str	r1, [r4, #8]
 800248a:	68a3      	ldr	r3, [r4, #8]
 800248c:	3b01      	subs	r3, #1
 800248e:	60a3      	str	r3, [r4, #8]
 8002490:	6923      	ldr	r3, [r4, #16]
 8002492:	3301      	adds	r3, #1
 8002494:	6123      	str	r3, [r4, #16]
 8002496:	6873      	ldr	r3, [r6, #4]
 8002498:	3b01      	subs	r3, #1
 800249a:	2b00      	cmp	r3, #0
 800249c:	6073      	str	r3, [r6, #4]
 800249e:	f340 80ac 	ble.w	80025fa <_scanf_float+0x232>
 80024a2:	6833      	ldr	r3, [r6, #0]
 80024a4:	3301      	adds	r3, #1
 80024a6:	6033      	str	r3, [r6, #0]
 80024a8:	e7b5      	b.n	8002416 <_scanf_float+0x4e>
 80024aa:	2b45      	cmp	r3, #69	; 0x45
 80024ac:	f000 8085 	beq.w	80025ba <_scanf_float+0x1f2>
 80024b0:	2b46      	cmp	r3, #70	; 0x46
 80024b2:	d06a      	beq.n	800258a <_scanf_float+0x1c2>
 80024b4:	2b41      	cmp	r3, #65	; 0x41
 80024b6:	d1c1      	bne.n	800243c <_scanf_float+0x74>
 80024b8:	2a01      	cmp	r2, #1
 80024ba:	d1bf      	bne.n	800243c <_scanf_float+0x74>
 80024bc:	2202      	movs	r2, #2
 80024be:	e046      	b.n	800254e <_scanf_float+0x186>
 80024c0:	2b65      	cmp	r3, #101	; 0x65
 80024c2:	d07a      	beq.n	80025ba <_scanf_float+0x1f2>
 80024c4:	d818      	bhi.n	80024f8 <_scanf_float+0x130>
 80024c6:	2b54      	cmp	r3, #84	; 0x54
 80024c8:	d066      	beq.n	8002598 <_scanf_float+0x1d0>
 80024ca:	d811      	bhi.n	80024f0 <_scanf_float+0x128>
 80024cc:	2b4e      	cmp	r3, #78	; 0x4e
 80024ce:	d1b5      	bne.n	800243c <_scanf_float+0x74>
 80024d0:	2a00      	cmp	r2, #0
 80024d2:	d146      	bne.n	8002562 <_scanf_float+0x19a>
 80024d4:	f1b9 0f00 	cmp.w	r9, #0
 80024d8:	d145      	bne.n	8002566 <_scanf_float+0x19e>
 80024da:	6821      	ldr	r1, [r4, #0]
 80024dc:	f401 60e0 	and.w	r0, r1, #1792	; 0x700
 80024e0:	f5b0 6fe0 	cmp.w	r0, #1792	; 0x700
 80024e4:	d13f      	bne.n	8002566 <_scanf_float+0x19e>
 80024e6:	f421 61f0 	bic.w	r1, r1, #1920	; 0x780
 80024ea:	6021      	str	r1, [r4, #0]
 80024ec:	2201      	movs	r2, #1
 80024ee:	e02e      	b.n	800254e <_scanf_float+0x186>
 80024f0:	2b59      	cmp	r3, #89	; 0x59
 80024f2:	d01e      	beq.n	8002532 <_scanf_float+0x16a>
 80024f4:	2b61      	cmp	r3, #97	; 0x61
 80024f6:	e7de      	b.n	80024b6 <_scanf_float+0xee>
 80024f8:	2b6e      	cmp	r3, #110	; 0x6e
 80024fa:	d0e9      	beq.n	80024d0 <_scanf_float+0x108>
 80024fc:	d815      	bhi.n	800252a <_scanf_float+0x162>
 80024fe:	2b66      	cmp	r3, #102	; 0x66
 8002500:	d043      	beq.n	800258a <_scanf_float+0x1c2>
 8002502:	2b69      	cmp	r3, #105	; 0x69
 8002504:	d19a      	bne.n	800243c <_scanf_float+0x74>
 8002506:	f1bb 0f00 	cmp.w	fp, #0
 800250a:	d138      	bne.n	800257e <_scanf_float+0x1b6>
 800250c:	f1b9 0f00 	cmp.w	r9, #0
 8002510:	d197      	bne.n	8002442 <_scanf_float+0x7a>
 8002512:	6821      	ldr	r1, [r4, #0]
 8002514:	f401 60e0 	and.w	r0, r1, #1792	; 0x700
 8002518:	f5b0 6fe0 	cmp.w	r0, #1792	; 0x700
 800251c:	d195      	bne.n	800244a <_scanf_float+0x82>
 800251e:	f421 61f0 	bic.w	r1, r1, #1920	; 0x780
 8002522:	6021      	str	r1, [r4, #0]
 8002524:	f04f 0b01 	mov.w	fp, #1
 8002528:	e011      	b.n	800254e <_scanf_float+0x186>
 800252a:	2b74      	cmp	r3, #116	; 0x74
 800252c:	d034      	beq.n	8002598 <_scanf_float+0x1d0>
 800252e:	2b79      	cmp	r3, #121	; 0x79
 8002530:	d184      	bne.n	800243c <_scanf_float+0x74>
 8002532:	f1bb 0f07 	cmp.w	fp, #7
 8002536:	d181      	bne.n	800243c <_scanf_float+0x74>
 8002538:	f04f 0b08 	mov.w	fp, #8
 800253c:	e007      	b.n	800254e <_scanf_float+0x186>
 800253e:	eb12 0f0b 	cmn.w	r2, fp
 8002542:	f47f af7b 	bne.w	800243c <_scanf_float+0x74>
 8002546:	6821      	ldr	r1, [r4, #0]
 8002548:	f421 71c0 	bic.w	r1, r1, #384	; 0x180
 800254c:	6021      	str	r1, [r4, #0]
 800254e:	702b      	strb	r3, [r5, #0]
 8002550:	3501      	adds	r5, #1
 8002552:	e79a      	b.n	800248a <_scanf_float+0xc2>
 8002554:	6821      	ldr	r1, [r4, #0]
 8002556:	0608      	lsls	r0, r1, #24
 8002558:	f57f af70 	bpl.w	800243c <_scanf_float+0x74>
 800255c:	f021 0180 	bic.w	r1, r1, #128	; 0x80
 8002560:	e7f4      	b.n	800254c <_scanf_float+0x184>
 8002562:	2a02      	cmp	r2, #2
 8002564:	d047      	beq.n	80025f6 <_scanf_float+0x22e>
 8002566:	f1bb 0f01 	cmp.w	fp, #1
 800256a:	d003      	beq.n	8002574 <_scanf_float+0x1ac>
 800256c:	f1bb 0f04 	cmp.w	fp, #4
 8002570:	f47f af64 	bne.w	800243c <_scanf_float+0x74>
 8002574:	f10b 0b01 	add.w	fp, fp, #1
 8002578:	fa5f fb8b 	uxtb.w	fp, fp
 800257c:	e7e7      	b.n	800254e <_scanf_float+0x186>
 800257e:	f1bb 0f03 	cmp.w	fp, #3
 8002582:	d0f7      	beq.n	8002574 <_scanf_float+0x1ac>
 8002584:	f1bb 0f05 	cmp.w	fp, #5
 8002588:	e7f2      	b.n	8002570 <_scanf_float+0x1a8>
 800258a:	f1bb 0f02 	cmp.w	fp, #2
 800258e:	f47f af55 	bne.w	800243c <_scanf_float+0x74>
 8002592:	f04f 0b03 	mov.w	fp, #3
 8002596:	e7da      	b.n	800254e <_scanf_float+0x186>
 8002598:	f1bb 0f06 	cmp.w	fp, #6
 800259c:	f47f af4e 	bne.w	800243c <_scanf_float+0x74>
 80025a0:	f04f 0b07 	mov.w	fp, #7
 80025a4:	e7d3      	b.n	800254e <_scanf_float+0x186>
 80025a6:	6821      	ldr	r1, [r4, #0]
 80025a8:	0588      	lsls	r0, r1, #22
 80025aa:	f57f af47 	bpl.w	800243c <_scanf_float+0x74>
 80025ae:	f421 7120 	bic.w	r1, r1, #640	; 0x280
 80025b2:	6021      	str	r1, [r4, #0]
 80025b4:	f8cd 9008 	str.w	r9, [sp, #8]
 80025b8:	e7c9      	b.n	800254e <_scanf_float+0x186>
 80025ba:	6821      	ldr	r1, [r4, #0]
 80025bc:	f401 60a0 	and.w	r0, r1, #1280	; 0x500
 80025c0:	f5b0 6f80 	cmp.w	r0, #1024	; 0x400
 80025c4:	d006      	beq.n	80025d4 <_scanf_float+0x20c>
 80025c6:	0548      	lsls	r0, r1, #21
 80025c8:	f57f af38 	bpl.w	800243c <_scanf_float+0x74>
 80025cc:	f1b9 0f00 	cmp.w	r9, #0
 80025d0:	f43f af3b 	beq.w	800244a <_scanf_float+0x82>
 80025d4:	0588      	lsls	r0, r1, #22
 80025d6:	bf5c      	itt	pl
 80025d8:	9802      	ldrpl	r0, [sp, #8]
 80025da:	9504      	strpl	r5, [sp, #16]
 80025dc:	f421 61f0 	bic.w	r1, r1, #1920	; 0x780
 80025e0:	bf58      	it	pl
 80025e2:	eba9 0000 	subpl.w	r0, r9, r0
 80025e6:	f441 71c0 	orr.w	r1, r1, #384	; 0x180
 80025ea:	bf58      	it	pl
 80025ec:	9003      	strpl	r0, [sp, #12]
 80025ee:	6021      	str	r1, [r4, #0]
 80025f0:	f04f 0900 	mov.w	r9, #0
 80025f4:	e7ab      	b.n	800254e <_scanf_float+0x186>
 80025f6:	2203      	movs	r2, #3
 80025f8:	e7a9      	b.n	800254e <_scanf_float+0x186>
 80025fa:	f8d4 3180 	ldr.w	r3, [r4, #384]	; 0x180
 80025fe:	9205      	str	r2, [sp, #20]
 8002600:	4631      	mov	r1, r6
 8002602:	4638      	mov	r0, r7
 8002604:	4798      	blx	r3
 8002606:	9a05      	ldr	r2, [sp, #20]
 8002608:	2800      	cmp	r0, #0
 800260a:	f43f af04 	beq.w	8002416 <_scanf_float+0x4e>
 800260e:	e715      	b.n	800243c <_scanf_float+0x74>
 8002610:	f8d4 317c 	ldr.w	r3, [r4, #380]	; 0x17c
 8002614:	f815 1d01 	ldrb.w	r1, [r5, #-1]!
 8002618:	4632      	mov	r2, r6
 800261a:	4638      	mov	r0, r7
 800261c:	4798      	blx	r3
 800261e:	6923      	ldr	r3, [r4, #16]
 8002620:	3b01      	subs	r3, #1
 8002622:	6123      	str	r3, [r4, #16]
 8002624:	e715      	b.n	8002452 <_scanf_float+0x8a>
 8002626:	f10b 33ff 	add.w	r3, fp, #4294967295
 800262a:	2b06      	cmp	r3, #6
 800262c:	d80a      	bhi.n	8002644 <_scanf_float+0x27c>
 800262e:	f1bb 0f02 	cmp.w	fp, #2
 8002632:	d92f      	bls.n	8002694 <_scanf_float+0x2cc>
 8002634:	f1ab 0b03 	sub.w	fp, fp, #3
 8002638:	fa5f fb8b 	uxtb.w	fp, fp
 800263c:	eba5 0b0b 	sub.w	fp, r5, fp
 8002640:	455d      	cmp	r5, fp
 8002642:	d112      	bne.n	800266a <_scanf_float+0x2a2>
 8002644:	6823      	ldr	r3, [r4, #0]
 8002646:	05da      	lsls	r2, r3, #23
 8002648:	d545      	bpl.n	80026d6 <_scanf_float+0x30e>
 800264a:	055b      	lsls	r3, r3, #21
 800264c:	d525      	bpl.n	800269a <_scanf_float+0x2d2>
 800264e:	4545      	cmp	r5, r8
 8002650:	f67f af02 	bls.w	8002458 <_scanf_float+0x90>
 8002654:	f8d4 317c 	ldr.w	r3, [r4, #380]	; 0x17c
 8002658:	f815 1d01 	ldrb.w	r1, [r5, #-1]!
 800265c:	4632      	mov	r2, r6
 800265e:	4638      	mov	r0, r7
 8002660:	4798      	blx	r3
 8002662:	6923      	ldr	r3, [r4, #16]
 8002664:	3b01      	subs	r3, #1
 8002666:	6123      	str	r3, [r4, #16]
 8002668:	e7f1      	b.n	800264e <_scanf_float+0x286>
 800266a:	f8d4 317c 	ldr.w	r3, [r4, #380]	; 0x17c
 800266e:	f815 1d01 	ldrb.w	r1, [r5, #-1]!
 8002672:	4632      	mov	r2, r6
 8002674:	4638      	mov	r0, r7
 8002676:	4798      	blx	r3
 8002678:	6923      	ldr	r3, [r4, #16]
 800267a:	3b01      	subs	r3, #1
 800267c:	6123      	str	r3, [r4, #16]
 800267e:	e7df      	b.n	8002640 <_scanf_float+0x278>
 8002680:	f8d4 317c 	ldr.w	r3, [r4, #380]	; 0x17c
 8002684:	f815 1d01 	ldrb.w	r1, [r5, #-1]!
 8002688:	4632      	mov	r2, r6
 800268a:	4638      	mov	r0, r7
 800268c:	4798      	blx	r3
 800268e:	6923      	ldr	r3, [r4, #16]
 8002690:	3b01      	subs	r3, #1
 8002692:	6123      	str	r3, [r4, #16]
 8002694:	4545      	cmp	r5, r8
 8002696:	d8f3      	bhi.n	8002680 <_scanf_float+0x2b8>
 8002698:	e6de      	b.n	8002458 <_scanf_float+0x90>
 800269a:	f815 1c01 	ldrb.w	r1, [r5, #-1]
 800269e:	6923      	ldr	r3, [r4, #16]
 80026a0:	2965      	cmp	r1, #101	; 0x65
 80026a2:	f103 33ff 	add.w	r3, r3, #4294967295
 80026a6:	f105 3bff 	add.w	fp, r5, #4294967295
 80026aa:	6123      	str	r3, [r4, #16]
 80026ac:	d00d      	beq.n	80026ca <_scanf_float+0x302>
 80026ae:	2945      	cmp	r1, #69	; 0x45
 80026b0:	d00b      	beq.n	80026ca <_scanf_float+0x302>
 80026b2:	f8d4 317c 	ldr.w	r3, [r4, #380]	; 0x17c
 80026b6:	4632      	mov	r2, r6
 80026b8:	4638      	mov	r0, r7
 80026ba:	4798      	blx	r3
 80026bc:	6923      	ldr	r3, [r4, #16]
 80026be:	f815 1c02 	ldrb.w	r1, [r5, #-2]
 80026c2:	3b01      	subs	r3, #1
 80026c4:	f1a5 0b02 	sub.w	fp, r5, #2
 80026c8:	6123      	str	r3, [r4, #16]
 80026ca:	f8d4 317c 	ldr.w	r3, [r4, #380]	; 0x17c
 80026ce:	4632      	mov	r2, r6
 80026d0:	4638      	mov	r0, r7
 80026d2:	4798      	blx	r3
 80026d4:	465d      	mov	r5, fp
 80026d6:	6826      	ldr	r6, [r4, #0]
 80026d8:	f016 0610 	ands.w	r6, r6, #16
 80026dc:	d154      	bne.n	8002788 <_scanf_float+0x3c0>
 80026de:	702e      	strb	r6, [r5, #0]
 80026e0:	6823      	ldr	r3, [r4, #0]
 80026e2:	f403 63c0 	and.w	r3, r3, #1536	; 0x600
 80026e6:	f5b3 6f80 	cmp.w	r3, #1024	; 0x400
 80026ea:	d11c      	bne.n	8002726 <_scanf_float+0x35e>
 80026ec:	9b02      	ldr	r3, [sp, #8]
 80026ee:	eba9 0303 	sub.w	r3, r9, r3
 80026f2:	425a      	negs	r2, r3
 80026f4:	bb23      	cbnz	r3, 8002740 <_scanf_float+0x378>
 80026f6:	2200      	movs	r2, #0
 80026f8:	4641      	mov	r1, r8
 80026fa:	4638      	mov	r0, r7
 80026fc:	f000 fedc 	bl	80034b8 <_strtod_r>
 8002700:	6825      	ldr	r5, [r4, #0]
 8002702:	f8da 3000 	ldr.w	r3, [sl]
 8002706:	f015 0f02 	tst.w	r5, #2
 800270a:	f103 0204 	add.w	r2, r3, #4
 800270e:	ec59 8b10 	vmov	r8, r9, d0
 8002712:	f8ca 2000 	str.w	r2, [sl]
 8002716:	d01e      	beq.n	8002756 <_scanf_float+0x38e>
 8002718:	681b      	ldr	r3, [r3, #0]
 800271a:	e9c3 8900 	strd	r8, r9, [r3]
 800271e:	68e3      	ldr	r3, [r4, #12]
 8002720:	3301      	adds	r3, #1
 8002722:	60e3      	str	r3, [r4, #12]
 8002724:	e699      	b.n	800245a <_scanf_float+0x92>
 8002726:	9b03      	ldr	r3, [sp, #12]
 8002728:	2b00      	cmp	r3, #0
 800272a:	d0e4      	beq.n	80026f6 <_scanf_float+0x32e>
 800272c:	9904      	ldr	r1, [sp, #16]
 800272e:	230a      	movs	r3, #10
 8002730:	4632      	mov	r2, r6
 8002732:	3101      	adds	r1, #1
 8002734:	4638      	mov	r0, r7
 8002736:	f000 ff4f 	bl	80035d8 <_strtol_r>
 800273a:	9b03      	ldr	r3, [sp, #12]
 800273c:	9d04      	ldr	r5, [sp, #16]
 800273e:	1ac2      	subs	r2, r0, r3
 8002740:	f204 136f 	addw	r3, r4, #367	; 0x16f
 8002744:	429d      	cmp	r5, r3
 8002746:	bf28      	it	cs
 8002748:	f504 75b7 	addcs.w	r5, r4, #366	; 0x16e
 800274c:	490f      	ldr	r1, [pc, #60]	; (800278c <_scanf_float+0x3c4>)
 800274e:	4628      	mov	r0, r5
 8002750:	f000 f886 	bl	8002860 <siprintf>
 8002754:	e7cf      	b.n	80026f6 <_scanf_float+0x32e>
 8002756:	f015 0504 	ands.w	r5, r5, #4
 800275a:	d1dd      	bne.n	8002718 <_scanf_float+0x350>
 800275c:	681f      	ldr	r7, [r3, #0]
 800275e:	ee10 2a10 	vmov	r2, s0
 8002762:	464b      	mov	r3, r9
 8002764:	ee10 0a10 	vmov	r0, s0
 8002768:	4649      	mov	r1, r9
 800276a:	f7fe fa13 	bl	8000b94 <__aeabi_dcmpun>
 800276e:	b128      	cbz	r0, 800277c <_scanf_float+0x3b4>
 8002770:	4628      	mov	r0, r5
 8002772:	f000 f86f 	bl	8002854 <nanf>
 8002776:	ed87 0a00 	vstr	s0, [r7]
 800277a:	e7d0      	b.n	800271e <_scanf_float+0x356>
 800277c:	4640      	mov	r0, r8
 800277e:	4649      	mov	r1, r9
 8002780:	f7fe fa66 	bl	8000c50 <__aeabi_d2f>
 8002784:	6038      	str	r0, [r7, #0]
 8002786:	e7ca      	b.n	800271e <_scanf_float+0x356>
 8002788:	2600      	movs	r6, #0
 800278a:	e666      	b.n	800245a <_scanf_float+0x92>
 800278c:	080057af 	.word	0x080057af

08002790 <srand>:
 8002790:	b538      	push	{r3, r4, r5, lr}
 8002792:	4b12      	ldr	r3, [pc, #72]	; (80027dc <srand+0x4c>)
 8002794:	681c      	ldr	r4, [r3, #0]
 8002796:	6ba3      	ldr	r3, [r4, #56]	; 0x38
 8002798:	4605      	mov	r5, r0
 800279a:	b9d3      	cbnz	r3, 80027d2 <srand+0x42>
 800279c:	2018      	movs	r0, #24
 800279e:	f002 f8b9 	bl	8004914 <malloc>
 80027a2:	f243 330e 	movw	r3, #13070	; 0x330e
 80027a6:	63a0      	str	r0, [r4, #56]	; 0x38
 80027a8:	8003      	strh	r3, [r0, #0]
 80027aa:	f64a 33cd 	movw	r3, #43981	; 0xabcd
 80027ae:	8043      	strh	r3, [r0, #2]
 80027b0:	f241 2334 	movw	r3, #4660	; 0x1234
 80027b4:	8083      	strh	r3, [r0, #4]
 80027b6:	f24e 636d 	movw	r3, #58989	; 0xe66d
 80027ba:	80c3      	strh	r3, [r0, #6]
 80027bc:	f64d 63ec 	movw	r3, #57068	; 0xdeec
 80027c0:	8103      	strh	r3, [r0, #8]
 80027c2:	2305      	movs	r3, #5
 80027c4:	8143      	strh	r3, [r0, #10]
 80027c6:	230b      	movs	r3, #11
 80027c8:	8183      	strh	r3, [r0, #12]
 80027ca:	2201      	movs	r2, #1
 80027cc:	2300      	movs	r3, #0
 80027ce:	e9c0 2304 	strd	r2, r3, [r0, #16]
 80027d2:	6ba3      	ldr	r3, [r4, #56]	; 0x38
 80027d4:	2200      	movs	r2, #0
 80027d6:	611d      	str	r5, [r3, #16]
 80027d8:	615a      	str	r2, [r3, #20]
 80027da:	bd38      	pop	{r3, r4, r5, pc}
 80027dc:	20000060 	.word	0x20000060

080027e0 <rand>:
 80027e0:	4b19      	ldr	r3, [pc, #100]	; (8002848 <rand+0x68>)
 80027e2:	b510      	push	{r4, lr}
 80027e4:	681c      	ldr	r4, [r3, #0]
 80027e6:	6ba3      	ldr	r3, [r4, #56]	; 0x38
 80027e8:	b9d3      	cbnz	r3, 8002820 <rand+0x40>
 80027ea:	2018      	movs	r0, #24
 80027ec:	f002 f892 	bl	8004914 <malloc>
 80027f0:	f243 330e 	movw	r3, #13070	; 0x330e
 80027f4:	63a0      	str	r0, [r4, #56]	; 0x38
 80027f6:	8003      	strh	r3, [r0, #0]
 80027f8:	f64a 33cd 	movw	r3, #43981	; 0xabcd
 80027fc:	8043      	strh	r3, [r0, #2]
 80027fe:	f241 2334 	movw	r3, #4660	; 0x1234
 8002802:	8083      	strh	r3, [r0, #4]
 8002804:	f24e 636d 	movw	r3, #58989	; 0xe66d
 8002808:	80c3      	strh	r3, [r0, #6]
 800280a:	f64d 63ec 	movw	r3, #57068	; 0xdeec
 800280e:	8103      	strh	r3, [r0, #8]
 8002810:	2305      	movs	r3, #5
 8002812:	8143      	strh	r3, [r0, #10]
 8002814:	230b      	movs	r3, #11
 8002816:	8183      	strh	r3, [r0, #12]
 8002818:	2201      	movs	r2, #1
 800281a:	2300      	movs	r3, #0
 800281c:	e9c0 2304 	strd	r2, r3, [r0, #16]
 8002820:	6ba1      	ldr	r1, [r4, #56]	; 0x38
 8002822:	480a      	ldr	r0, [pc, #40]	; (800284c <rand+0x6c>)
 8002824:	690a      	ldr	r2, [r1, #16]
 8002826:	694b      	ldr	r3, [r1, #20]
 8002828:	4c09      	ldr	r4, [pc, #36]	; (8002850 <rand+0x70>)
 800282a:	4350      	muls	r0, r2
 800282c:	fb04 0003 	mla	r0, r4, r3, r0
 8002830:	fba2 2304 	umull	r2, r3, r2, r4
 8002834:	3201      	adds	r2, #1
 8002836:	4403      	add	r3, r0
 8002838:	f143 0300 	adc.w	r3, r3, #0
 800283c:	e9c1 2304 	strd	r2, r3, [r1, #16]
 8002840:	f023 4000 	bic.w	r0, r3, #2147483648	; 0x80000000
 8002844:	bd10      	pop	{r4, pc}
 8002846:	bf00      	nop
 8002848:	20000060 	.word	0x20000060
 800284c:	5851f42d 	.word	0x5851f42d
 8002850:	4c957f2d 	.word	0x4c957f2d

08002854 <nanf>:
 8002854:	ed9f 0a01 	vldr	s0, [pc, #4]	; 800285c <nanf+0x8>
 8002858:	4770      	bx	lr
 800285a:	bf00      	nop
 800285c:	7fc00000 	.word	0x7fc00000

08002860 <siprintf>:
 8002860:	b40e      	push	{r1, r2, r3}
 8002862:	b500      	push	{lr}
 8002864:	b09c      	sub	sp, #112	; 0x70
 8002866:	f44f 7102 	mov.w	r1, #520	; 0x208
 800286a:	ab1d      	add	r3, sp, #116	; 0x74
 800286c:	f8ad 1014 	strh.w	r1, [sp, #20]
 8002870:	9002      	str	r0, [sp, #8]
 8002872:	9006      	str	r0, [sp, #24]
 8002874:	f06f 4100 	mvn.w	r1, #2147483648	; 0x80000000
 8002878:	480a      	ldr	r0, [pc, #40]	; (80028a4 <siprintf+0x44>)
 800287a:	9104      	str	r1, [sp, #16]
 800287c:	9107      	str	r1, [sp, #28]
 800287e:	f64f 71ff 	movw	r1, #65535	; 0xffff
 8002882:	f853 2b04 	ldr.w	r2, [r3], #4
 8002886:	f8ad 1016 	strh.w	r1, [sp, #22]
 800288a:	6800      	ldr	r0, [r0, #0]
 800288c:	9301      	str	r3, [sp, #4]
 800288e:	a902      	add	r1, sp, #8
 8002890:	f002 fd68 	bl	8005364 <_svfiprintf_r>
 8002894:	9b02      	ldr	r3, [sp, #8]
 8002896:	2200      	movs	r2, #0
 8002898:	701a      	strb	r2, [r3, #0]
 800289a:	b01c      	add	sp, #112	; 0x70
 800289c:	f85d eb04 	ldr.w	lr, [sp], #4
 80028a0:	b003      	add	sp, #12
 80028a2:	4770      	bx	lr
 80028a4:	20000060 	.word	0x20000060

080028a8 <sulp>:
 80028a8:	b570      	push	{r4, r5, r6, lr}
 80028aa:	4604      	mov	r4, r0
 80028ac:	460d      	mov	r5, r1
 80028ae:	ec45 4b10 	vmov	d0, r4, r5
 80028b2:	4616      	mov	r6, r2
 80028b4:	f002 fb14 	bl	8004ee0 <__ulp>
 80028b8:	ec51 0b10 	vmov	r0, r1, d0
 80028bc:	b17e      	cbz	r6, 80028de <sulp+0x36>
 80028be:	f3c5 530a 	ubfx	r3, r5, #20, #11
 80028c2:	f1c3 036b 	rsb	r3, r3, #107	; 0x6b
 80028c6:	2b00      	cmp	r3, #0
 80028c8:	dd09      	ble.n	80028de <sulp+0x36>
 80028ca:	051b      	lsls	r3, r3, #20
 80028cc:	f103 557f 	add.w	r5, r3, #1069547520	; 0x3fc00000
 80028d0:	2400      	movs	r4, #0
 80028d2:	f505 1540 	add.w	r5, r5, #3145728	; 0x300000
 80028d6:	4622      	mov	r2, r4
 80028d8:	462b      	mov	r3, r5
 80028da:	f7fd fec1 	bl	8000660 <__aeabi_dmul>
 80028de:	bd70      	pop	{r4, r5, r6, pc}

080028e0 <_strtod_l>:
 80028e0:	e92d 4ff0 	stmdb	sp!, {r4, r5, r6, r7, r8, r9, sl, fp, lr}
 80028e4:	b09f      	sub	sp, #124	; 0x7c
 80028e6:	4698      	mov	r8, r3
 80028e8:	9004      	str	r0, [sp, #16]
 80028ea:	2300      	movs	r3, #0
 80028ec:	4640      	mov	r0, r8
 80028ee:	460c      	mov	r4, r1
 80028f0:	9215      	str	r2, [sp, #84]	; 0x54
 80028f2:	931a      	str	r3, [sp, #104]	; 0x68
 80028f4:	f001 fffe 	bl	80048f4 <__localeconv_l>
 80028f8:	4607      	mov	r7, r0
 80028fa:	6800      	ldr	r0, [r0, #0]
 80028fc:	f7fd fc9e 	bl	800023c <strlen>
 8002900:	f04f 0a00 	mov.w	sl, #0
 8002904:	4605      	mov	r5, r0
 8002906:	f04f 0b00 	mov.w	fp, #0
 800290a:	9419      	str	r4, [sp, #100]	; 0x64
 800290c:	9b19      	ldr	r3, [sp, #100]	; 0x64
 800290e:	781a      	ldrb	r2, [r3, #0]
 8002910:	2a0d      	cmp	r2, #13
 8002912:	d833      	bhi.n	800297c <_strtod_l+0x9c>
 8002914:	2a09      	cmp	r2, #9
 8002916:	d237      	bcs.n	8002988 <_strtod_l+0xa8>
 8002918:	2a00      	cmp	r2, #0
 800291a:	d03f      	beq.n	800299c <_strtod_l+0xbc>
 800291c:	2300      	movs	r3, #0
 800291e:	9309      	str	r3, [sp, #36]	; 0x24
 8002920:	9e19      	ldr	r6, [sp, #100]	; 0x64
 8002922:	7833      	ldrb	r3, [r6, #0]
 8002924:	2b30      	cmp	r3, #48	; 0x30
 8002926:	f040 8103 	bne.w	8002b30 <_strtod_l+0x250>
 800292a:	7873      	ldrb	r3, [r6, #1]
 800292c:	2b58      	cmp	r3, #88	; 0x58
 800292e:	d001      	beq.n	8002934 <_strtod_l+0x54>
 8002930:	2b78      	cmp	r3, #120	; 0x78
 8002932:	d16b      	bne.n	8002a0c <_strtod_l+0x12c>
 8002934:	9b09      	ldr	r3, [sp, #36]	; 0x24
 8002936:	9301      	str	r3, [sp, #4]
 8002938:	ab1a      	add	r3, sp, #104	; 0x68
 800293a:	9300      	str	r3, [sp, #0]
 800293c:	f8cd 8008 	str.w	r8, [sp, #8]
 8002940:	ab1b      	add	r3, sp, #108	; 0x6c
 8002942:	4aad      	ldr	r2, [pc, #692]	; (8002bf8 <_strtod_l+0x318>)
 8002944:	9804      	ldr	r0, [sp, #16]
 8002946:	a919      	add	r1, sp, #100	; 0x64
 8002948:	f001 fcfe 	bl	8004348 <__gethex>
 800294c:	f010 0407 	ands.w	r4, r0, #7
 8002950:	4605      	mov	r5, r0
 8002952:	d005      	beq.n	8002960 <_strtod_l+0x80>
 8002954:	2c06      	cmp	r4, #6
 8002956:	d12b      	bne.n	80029b0 <_strtod_l+0xd0>
 8002958:	3601      	adds	r6, #1
 800295a:	2300      	movs	r3, #0
 800295c:	9619      	str	r6, [sp, #100]	; 0x64
 800295e:	9309      	str	r3, [sp, #36]	; 0x24
 8002960:	9b15      	ldr	r3, [sp, #84]	; 0x54
 8002962:	2b00      	cmp	r3, #0
 8002964:	f040 8590 	bne.w	8003488 <_strtod_l+0xba8>
 8002968:	9b09      	ldr	r3, [sp, #36]	; 0x24
 800296a:	b1e3      	cbz	r3, 80029a6 <_strtod_l+0xc6>
 800296c:	4652      	mov	r2, sl
 800296e:	f10b 4300 	add.w	r3, fp, #2147483648	; 0x80000000
 8002972:	ec43 2b10 	vmov	d0, r2, r3
 8002976:	b01f      	add	sp, #124	; 0x7c
 8002978:	e8bd 8ff0 	ldmia.w	sp!, {r4, r5, r6, r7, r8, r9, sl, fp, pc}
 800297c:	2a2b      	cmp	r2, #43	; 0x2b
 800297e:	d006      	beq.n	800298e <_strtod_l+0xae>
 8002980:	2a2d      	cmp	r2, #45	; 0x2d
 8002982:	d013      	beq.n	80029ac <_strtod_l+0xcc>
 8002984:	2a20      	cmp	r2, #32
 8002986:	d1c9      	bne.n	800291c <_strtod_l+0x3c>
 8002988:	3301      	adds	r3, #1
 800298a:	9319      	str	r3, [sp, #100]	; 0x64
 800298c:	e7be      	b.n	800290c <_strtod_l+0x2c>
 800298e:	2200      	movs	r2, #0
 8002990:	9209      	str	r2, [sp, #36]	; 0x24
 8002992:	1c5a      	adds	r2, r3, #1
 8002994:	9219      	str	r2, [sp, #100]	; 0x64
 8002996:	785b      	ldrb	r3, [r3, #1]
 8002998:	2b00      	cmp	r3, #0
 800299a:	d1c1      	bne.n	8002920 <_strtod_l+0x40>
 800299c:	9b15      	ldr	r3, [sp, #84]	; 0x54
 800299e:	9419      	str	r4, [sp, #100]	; 0x64
 80029a0:	2b00      	cmp	r3, #0
 80029a2:	f040 856f 	bne.w	8003484 <_strtod_l+0xba4>
 80029a6:	4652      	mov	r2, sl
 80029a8:	465b      	mov	r3, fp
 80029aa:	e7e2      	b.n	8002972 <_strtod_l+0x92>
 80029ac:	2201      	movs	r2, #1
 80029ae:	e7ef      	b.n	8002990 <_strtod_l+0xb0>
 80029b0:	9a1a      	ldr	r2, [sp, #104]	; 0x68
 80029b2:	b13a      	cbz	r2, 80029c4 <_strtod_l+0xe4>
 80029b4:	2135      	movs	r1, #53	; 0x35
 80029b6:	a81c      	add	r0, sp, #112	; 0x70
 80029b8:	f002 fb83 	bl	80050c2 <__copybits>
 80029bc:	991a      	ldr	r1, [sp, #104]	; 0x68
 80029be:	9804      	ldr	r0, [sp, #16]
 80029c0:	f002 f801 	bl	80049c6 <_Bfree>
 80029c4:	3c01      	subs	r4, #1
 80029c6:	2c04      	cmp	r4, #4
 80029c8:	d808      	bhi.n	80029dc <_strtod_l+0xfc>
 80029ca:	e8df f004 	tbb	[pc, r4]
 80029ce:	030c      	.short	0x030c
 80029d0:	1a17      	.short	0x1a17
 80029d2:	0c          	.byte	0x0c
 80029d3:	00          	.byte	0x00
 80029d4:	f8dd a070 	ldr.w	sl, [sp, #112]	; 0x70
 80029d8:	f8dd b074 	ldr.w	fp, [sp, #116]	; 0x74
 80029dc:	0729      	lsls	r1, r5, #28
 80029de:	d5bf      	bpl.n	8002960 <_strtod_l+0x80>
 80029e0:	f04b 4b00 	orr.w	fp, fp, #2147483648	; 0x80000000
 80029e4:	e7bc      	b.n	8002960 <_strtod_l+0x80>
 80029e6:	9b1d      	ldr	r3, [sp, #116]	; 0x74
 80029e8:	9a1b      	ldr	r2, [sp, #108]	; 0x6c
 80029ea:	f8dd a070 	ldr.w	sl, [sp, #112]	; 0x70
 80029ee:	f423 1380 	bic.w	r3, r3, #1048576	; 0x100000
 80029f2:	f202 4233 	addw	r2, r2, #1075	; 0x433
 80029f6:	ea43 5b02 	orr.w	fp, r3, r2, lsl #20
 80029fa:	e7ef      	b.n	80029dc <_strtod_l+0xfc>
 80029fc:	f8df b204 	ldr.w	fp, [pc, #516]	; 8002c04 <_strtod_l+0x324>
 8002a00:	e7ec      	b.n	80029dc <_strtod_l+0xfc>
 8002a02:	f06f 4b00 	mvn.w	fp, #2147483648	; 0x80000000
 8002a06:	f04f 3aff 	mov.w	sl, #4294967295
 8002a0a:	e7e7      	b.n	80029dc <_strtod_l+0xfc>
 8002a0c:	9b19      	ldr	r3, [sp, #100]	; 0x64
 8002a0e:	1c5a      	adds	r2, r3, #1
 8002a10:	9219      	str	r2, [sp, #100]	; 0x64
 8002a12:	785b      	ldrb	r3, [r3, #1]
 8002a14:	2b30      	cmp	r3, #48	; 0x30
 8002a16:	d0f9      	beq.n	8002a0c <_strtod_l+0x12c>
 8002a18:	2b00      	cmp	r3, #0
 8002a1a:	d0a1      	beq.n	8002960 <_strtod_l+0x80>
 8002a1c:	2301      	movs	r3, #1
 8002a1e:	f04f 0900 	mov.w	r9, #0
 8002a22:	9308      	str	r3, [sp, #32]
 8002a24:	9b19      	ldr	r3, [sp, #100]	; 0x64
 8002a26:	930a      	str	r3, [sp, #40]	; 0x28
 8002a28:	f8cd 901c 	str.w	r9, [sp, #28]
 8002a2c:	f8cd 9018 	str.w	r9, [sp, #24]
 8002a30:	220a      	movs	r2, #10
 8002a32:	9819      	ldr	r0, [sp, #100]	; 0x64
 8002a34:	7806      	ldrb	r6, [r0, #0]
 8002a36:	f1a6 0330 	sub.w	r3, r6, #48	; 0x30
 8002a3a:	b2d9      	uxtb	r1, r3
 8002a3c:	2909      	cmp	r1, #9
 8002a3e:	d979      	bls.n	8002b34 <_strtod_l+0x254>
 8002a40:	462a      	mov	r2, r5
 8002a42:	6839      	ldr	r1, [r7, #0]
 8002a44:	f002 fd92 	bl	800556c <strncmp>
 8002a48:	2800      	cmp	r0, #0
 8002a4a:	f000 8082 	beq.w	8002b52 <_strtod_l+0x272>
 8002a4e:	2000      	movs	r0, #0
 8002a50:	9d06      	ldr	r5, [sp, #24]
 8002a52:	4633      	mov	r3, r6
 8002a54:	4602      	mov	r2, r0
 8002a56:	4601      	mov	r1, r0
 8002a58:	2b65      	cmp	r3, #101	; 0x65
 8002a5a:	d002      	beq.n	8002a62 <_strtod_l+0x182>
 8002a5c:	2b45      	cmp	r3, #69	; 0x45
 8002a5e:	f040 80e8 	bne.w	8002c32 <_strtod_l+0x352>
 8002a62:	b925      	cbnz	r5, 8002a6e <_strtod_l+0x18e>
 8002a64:	b910      	cbnz	r0, 8002a6c <_strtod_l+0x18c>
 8002a66:	9b08      	ldr	r3, [sp, #32]
 8002a68:	2b00      	cmp	r3, #0
 8002a6a:	d097      	beq.n	800299c <_strtod_l+0xbc>
 8002a6c:	2500      	movs	r5, #0
 8002a6e:	9c19      	ldr	r4, [sp, #100]	; 0x64
 8002a70:	1c63      	adds	r3, r4, #1
 8002a72:	9319      	str	r3, [sp, #100]	; 0x64
 8002a74:	7863      	ldrb	r3, [r4, #1]
 8002a76:	2b2b      	cmp	r3, #43	; 0x2b
 8002a78:	f000 80c8 	beq.w	8002c0c <_strtod_l+0x32c>
 8002a7c:	2b2d      	cmp	r3, #45	; 0x2d
 8002a7e:	f000 80cb 	beq.w	8002c18 <_strtod_l+0x338>
 8002a82:	2600      	movs	r6, #0
 8002a84:	9605      	str	r6, [sp, #20]
 8002a86:	f1a3 0630 	sub.w	r6, r3, #48	; 0x30
 8002a8a:	2e09      	cmp	r6, #9
 8002a8c:	f200 80d0 	bhi.w	8002c30 <_strtod_l+0x350>
 8002a90:	2b30      	cmp	r3, #48	; 0x30
 8002a92:	f000 80c3 	beq.w	8002c1c <_strtod_l+0x33c>
 8002a96:	f1a3 0631 	sub.w	r6, r3, #49	; 0x31
 8002a9a:	2e08      	cmp	r6, #8
 8002a9c:	f200 80c9 	bhi.w	8002c32 <_strtod_l+0x352>
 8002aa0:	f1a3 0e30 	sub.w	lr, r3, #48	; 0x30
 8002aa4:	9b19      	ldr	r3, [sp, #100]	; 0x64
 8002aa6:	f04f 0c0a 	mov.w	ip, #10
 8002aaa:	461f      	mov	r7, r3
 8002aac:	9b19      	ldr	r3, [sp, #100]	; 0x64
 8002aae:	1c5e      	adds	r6, r3, #1
 8002ab0:	9619      	str	r6, [sp, #100]	; 0x64
 8002ab2:	785b      	ldrb	r3, [r3, #1]
 8002ab4:	f1a3 0830 	sub.w	r8, r3, #48	; 0x30
 8002ab8:	f1b8 0f09 	cmp.w	r8, #9
 8002abc:	f240 80b3 	bls.w	8002c26 <_strtod_l+0x346>
 8002ac0:	1bf6      	subs	r6, r6, r7
 8002ac2:	2e08      	cmp	r6, #8
 8002ac4:	f644 681f 	movw	r8, #19999	; 0x4e1f
 8002ac8:	dc02      	bgt.n	8002ad0 <_strtod_l+0x1f0>
 8002aca:	45f0      	cmp	r8, lr
 8002acc:	bfa8      	it	ge
 8002ace:	46f0      	movge	r8, lr
 8002ad0:	9e05      	ldr	r6, [sp, #20]
 8002ad2:	b10e      	cbz	r6, 8002ad8 <_strtod_l+0x1f8>
 8002ad4:	f1c8 0800 	rsb	r8, r8, #0
 8002ad8:	2d00      	cmp	r5, #0
 8002ada:	f040 80d0 	bne.w	8002c7e <_strtod_l+0x39e>
 8002ade:	2800      	cmp	r0, #0
 8002ae0:	f47f af3e 	bne.w	8002960 <_strtod_l+0x80>
 8002ae4:	9a08      	ldr	r2, [sp, #32]
 8002ae6:	2a00      	cmp	r2, #0
 8002ae8:	f47f af3a 	bne.w	8002960 <_strtod_l+0x80>
 8002aec:	2900      	cmp	r1, #0
 8002aee:	f47f af55 	bne.w	800299c <_strtod_l+0xbc>
 8002af2:	2b4e      	cmp	r3, #78	; 0x4e
 8002af4:	f000 80a6 	beq.w	8002c44 <_strtod_l+0x364>
 8002af8:	f300 809e 	bgt.w	8002c38 <_strtod_l+0x358>
 8002afc:	2b49      	cmp	r3, #73	; 0x49
 8002afe:	f47f af4d 	bne.w	800299c <_strtod_l+0xbc>
 8002b02:	493e      	ldr	r1, [pc, #248]	; (8002bfc <_strtod_l+0x31c>)
 8002b04:	a819      	add	r0, sp, #100	; 0x64
 8002b06:	f001 fe4f 	bl	80047a8 <__match>
 8002b0a:	2800      	cmp	r0, #0
 8002b0c:	f43f af46 	beq.w	800299c <_strtod_l+0xbc>
 8002b10:	9b19      	ldr	r3, [sp, #100]	; 0x64
 8002b12:	493b      	ldr	r1, [pc, #236]	; (8002c00 <_strtod_l+0x320>)
 8002b14:	3b01      	subs	r3, #1
 8002b16:	a819      	add	r0, sp, #100	; 0x64
 8002b18:	9319      	str	r3, [sp, #100]	; 0x64
 8002b1a:	f001 fe45 	bl	80047a8 <__match>
 8002b1e:	b910      	cbnz	r0, 8002b26 <_strtod_l+0x246>
 8002b20:	9b19      	ldr	r3, [sp, #100]	; 0x64
 8002b22:	3301      	adds	r3, #1
 8002b24:	9319      	str	r3, [sp, #100]	; 0x64
 8002b26:	f8df b0dc 	ldr.w	fp, [pc, #220]	; 8002c04 <_strtod_l+0x324>
 8002b2a:	f04f 0a00 	mov.w	sl, #0
 8002b2e:	e717      	b.n	8002960 <_strtod_l+0x80>
 8002b30:	2300      	movs	r3, #0
 8002b32:	e774      	b.n	8002a1e <_strtod_l+0x13e>
 8002b34:	9906      	ldr	r1, [sp, #24]
 8002b36:	2908      	cmp	r1, #8
 8002b38:	bfdd      	ittte	le
 8002b3a:	9907      	ldrle	r1, [sp, #28]
 8002b3c:	fb02 3301 	mlale	r3, r2, r1, r3
 8002b40:	9307      	strle	r3, [sp, #28]
 8002b42:	fb02 3909 	mlagt	r9, r2, r9, r3
 8002b46:	9b06      	ldr	r3, [sp, #24]
 8002b48:	3001      	adds	r0, #1
 8002b4a:	3301      	adds	r3, #1
 8002b4c:	9306      	str	r3, [sp, #24]
 8002b4e:	9019      	str	r0, [sp, #100]	; 0x64
 8002b50:	e76f      	b.n	8002a32 <_strtod_l+0x152>
 8002b52:	9b19      	ldr	r3, [sp, #100]	; 0x64
 8002b54:	195a      	adds	r2, r3, r5
 8002b56:	9219      	str	r2, [sp, #100]	; 0x64
 8002b58:	9a06      	ldr	r2, [sp, #24]
 8002b5a:	5d5b      	ldrb	r3, [r3, r5]
 8002b5c:	2a00      	cmp	r2, #0
 8002b5e:	d148      	bne.n	8002bf2 <_strtod_l+0x312>
 8002b60:	4610      	mov	r0, r2
 8002b62:	2b30      	cmp	r3, #48	; 0x30
 8002b64:	d02a      	beq.n	8002bbc <_strtod_l+0x2dc>
 8002b66:	f1a3 0231 	sub.w	r2, r3, #49	; 0x31
 8002b6a:	2a08      	cmp	r2, #8
 8002b6c:	f200 8491 	bhi.w	8003492 <_strtod_l+0xbb2>
 8002b70:	9a19      	ldr	r2, [sp, #100]	; 0x64
 8002b72:	920a      	str	r2, [sp, #40]	; 0x28
 8002b74:	4602      	mov	r2, r0
 8002b76:	2000      	movs	r0, #0
 8002b78:	4605      	mov	r5, r0
 8002b7a:	3b30      	subs	r3, #48	; 0x30
 8002b7c:	f100 0101 	add.w	r1, r0, #1
 8002b80:	d011      	beq.n	8002ba6 <_strtod_l+0x2c6>
 8002b82:	440a      	add	r2, r1
 8002b84:	eb00 0c05 	add.w	ip, r0, r5
 8002b88:	4629      	mov	r1, r5
 8002b8a:	260a      	movs	r6, #10
 8002b8c:	4561      	cmp	r1, ip
 8002b8e:	d11b      	bne.n	8002bc8 <_strtod_l+0x2e8>
 8002b90:	4428      	add	r0, r5
 8002b92:	2808      	cmp	r0, #8
 8002b94:	f100 0501 	add.w	r5, r0, #1
 8002b98:	dc25      	bgt.n	8002be6 <_strtod_l+0x306>
 8002b9a:	9807      	ldr	r0, [sp, #28]
 8002b9c:	210a      	movs	r1, #10
 8002b9e:	fb01 3300 	mla	r3, r1, r0, r3
 8002ba2:	9307      	str	r3, [sp, #28]
 8002ba4:	2100      	movs	r1, #0
 8002ba6:	9b19      	ldr	r3, [sp, #100]	; 0x64
 8002ba8:	1c58      	adds	r0, r3, #1
 8002baa:	9019      	str	r0, [sp, #100]	; 0x64
 8002bac:	785b      	ldrb	r3, [r3, #1]
 8002bae:	4608      	mov	r0, r1
 8002bb0:	f1a3 0130 	sub.w	r1, r3, #48	; 0x30
 8002bb4:	2909      	cmp	r1, #9
 8002bb6:	d9e0      	bls.n	8002b7a <_strtod_l+0x29a>
 8002bb8:	2101      	movs	r1, #1
 8002bba:	e74d      	b.n	8002a58 <_strtod_l+0x178>
 8002bbc:	9b19      	ldr	r3, [sp, #100]	; 0x64
 8002bbe:	1c5a      	adds	r2, r3, #1
 8002bc0:	9219      	str	r2, [sp, #100]	; 0x64
 8002bc2:	3001      	adds	r0, #1
 8002bc4:	785b      	ldrb	r3, [r3, #1]
 8002bc6:	e7cc      	b.n	8002b62 <_strtod_l+0x282>
 8002bc8:	3101      	adds	r1, #1
 8002bca:	f101 3eff 	add.w	lr, r1, #4294967295
 8002bce:	f1be 0f08 	cmp.w	lr, #8
 8002bd2:	dc03      	bgt.n	8002bdc <_strtod_l+0x2fc>
 8002bd4:	9f07      	ldr	r7, [sp, #28]
 8002bd6:	4377      	muls	r7, r6
 8002bd8:	9707      	str	r7, [sp, #28]
 8002bda:	e7d7      	b.n	8002b8c <_strtod_l+0x2ac>
 8002bdc:	2910      	cmp	r1, #16
 8002bde:	bfd8      	it	le
 8002be0:	fb06 f909 	mulle.w	r9, r6, r9
 8002be4:	e7d2      	b.n	8002b8c <_strtod_l+0x2ac>
 8002be6:	2d10      	cmp	r5, #16
 8002be8:	bfdc      	itt	le
 8002bea:	210a      	movle	r1, #10
 8002bec:	fb01 3909 	mlale	r9, r1, r9, r3
 8002bf0:	e7d8      	b.n	8002ba4 <_strtod_l+0x2c4>
 8002bf2:	4602      	mov	r2, r0
 8002bf4:	9d06      	ldr	r5, [sp, #24]
 8002bf6:	e7db      	b.n	8002bb0 <_strtod_l+0x2d0>
 8002bf8:	080057b4 	.word	0x080057b4
 8002bfc:	08005780 	.word	0x08005780
 8002c00:	0800580b 	.word	0x0800580b
 8002c04:	7ff00000 	.word	0x7ff00000
 8002c08:	2101      	movs	r1, #1
 8002c0a:	e72b      	b.n	8002a64 <_strtod_l+0x184>
 8002c0c:	2300      	movs	r3, #0
 8002c0e:	9305      	str	r3, [sp, #20]
 8002c10:	1ca3      	adds	r3, r4, #2
 8002c12:	9319      	str	r3, [sp, #100]	; 0x64
 8002c14:	78a3      	ldrb	r3, [r4, #2]
 8002c16:	e736      	b.n	8002a86 <_strtod_l+0x1a6>
 8002c18:	2301      	movs	r3, #1
 8002c1a:	e7f8      	b.n	8002c0e <_strtod_l+0x32e>
 8002c1c:	9b19      	ldr	r3, [sp, #100]	; 0x64
 8002c1e:	1c5e      	adds	r6, r3, #1
 8002c20:	9619      	str	r6, [sp, #100]	; 0x64
 8002c22:	785b      	ldrb	r3, [r3, #1]
 8002c24:	e734      	b.n	8002a90 <_strtod_l+0x1b0>
 8002c26:	fb0c 3e0e 	mla	lr, ip, lr, r3
 8002c2a:	f1ae 0e30 	sub.w	lr, lr, #48	; 0x30
 8002c2e:	e73d      	b.n	8002aac <_strtod_l+0x1cc>
 8002c30:	9419      	str	r4, [sp, #100]	; 0x64
 8002c32:	f04f 0800 	mov.w	r8, #0
 8002c36:	e74f      	b.n	8002ad8 <_strtod_l+0x1f8>
 8002c38:	2b69      	cmp	r3, #105	; 0x69
 8002c3a:	f43f af62 	beq.w	8002b02 <_strtod_l+0x222>
 8002c3e:	2b6e      	cmp	r3, #110	; 0x6e
 8002c40:	f47f aeac 	bne.w	800299c <_strtod_l+0xbc>
 8002c44:	4988      	ldr	r1, [pc, #544]	; (8002e68 <_strtod_l+0x588>)
 8002c46:	a819      	add	r0, sp, #100	; 0x64
 8002c48:	f001 fdae 	bl	80047a8 <__match>
 8002c4c:	2800      	cmp	r0, #0
 8002c4e:	f43f aea5 	beq.w	800299c <_strtod_l+0xbc>
 8002c52:	9b19      	ldr	r3, [sp, #100]	; 0x64
 8002c54:	781b      	ldrb	r3, [r3, #0]
 8002c56:	2b28      	cmp	r3, #40	; 0x28
 8002c58:	d10e      	bne.n	8002c78 <_strtod_l+0x398>
 8002c5a:	aa1c      	add	r2, sp, #112	; 0x70
 8002c5c:	4983      	ldr	r1, [pc, #524]	; (8002e6c <_strtod_l+0x58c>)
 8002c5e:	a819      	add	r0, sp, #100	; 0x64
 8002c60:	f001 fdb5 	bl	80047ce <__hexnan>
 8002c64:	2805      	cmp	r0, #5
 8002c66:	d107      	bne.n	8002c78 <_strtod_l+0x398>
 8002c68:	9b1d      	ldr	r3, [sp, #116]	; 0x74
 8002c6a:	f8dd a070 	ldr.w	sl, [sp, #112]	; 0x70
 8002c6e:	f043 4bff 	orr.w	fp, r3, #2139095040	; 0x7f800000
 8002c72:	f44b 0be0 	orr.w	fp, fp, #7340032	; 0x700000
 8002c76:	e673      	b.n	8002960 <_strtod_l+0x80>
 8002c78:	f8df b200 	ldr.w	fp, [pc, #512]	; 8002e7c <_strtod_l+0x59c>
 8002c7c:	e755      	b.n	8002b2a <_strtod_l+0x24a>
 8002c7e:	9b06      	ldr	r3, [sp, #24]
 8002c80:	9807      	ldr	r0, [sp, #28]
 8002c82:	2b00      	cmp	r3, #0
 8002c84:	bf08      	it	eq
 8002c86:	462b      	moveq	r3, r5
 8002c88:	2d10      	cmp	r5, #16
 8002c8a:	462c      	mov	r4, r5
 8002c8c:	eba8 0802 	sub.w	r8, r8, r2
 8002c90:	bfa8      	it	ge
 8002c92:	2410      	movge	r4, #16
 8002c94:	9306      	str	r3, [sp, #24]
 8002c96:	f7fd fc6d 	bl	8000574 <__aeabi_ui2d>
 8002c9a:	2c09      	cmp	r4, #9
 8002c9c:	4682      	mov	sl, r0
 8002c9e:	468b      	mov	fp, r1
 8002ca0:	dd13      	ble.n	8002cca <_strtod_l+0x3ea>
 8002ca2:	4b73      	ldr	r3, [pc, #460]	; (8002e70 <_strtod_l+0x590>)
 8002ca4:	eb03 03c4 	add.w	r3, r3, r4, lsl #3
 8002ca8:	e953 2312 	ldrd	r2, r3, [r3, #-72]	; 0x48
 8002cac:	f7fd fcd8 	bl	8000660 <__aeabi_dmul>
 8002cb0:	4606      	mov	r6, r0
 8002cb2:	4648      	mov	r0, r9
 8002cb4:	460f      	mov	r7, r1
 8002cb6:	f7fd fc5d 	bl	8000574 <__aeabi_ui2d>
 8002cba:	4602      	mov	r2, r0
 8002cbc:	460b      	mov	r3, r1
 8002cbe:	4630      	mov	r0, r6
 8002cc0:	4639      	mov	r1, r7
 8002cc2:	f7fd fb1b 	bl	80002fc <__adddf3>
 8002cc6:	4682      	mov	sl, r0
 8002cc8:	468b      	mov	fp, r1
 8002cca:	2d0f      	cmp	r5, #15
 8002ccc:	dc36      	bgt.n	8002d3c <_strtod_l+0x45c>
 8002cce:	f1b8 0f00 	cmp.w	r8, #0
 8002cd2:	f43f ae45 	beq.w	8002960 <_strtod_l+0x80>
 8002cd6:	dd24      	ble.n	8002d22 <_strtod_l+0x442>
 8002cd8:	f1b8 0f16 	cmp.w	r8, #22
 8002cdc:	dc0b      	bgt.n	8002cf6 <_strtod_l+0x416>
 8002cde:	4d64      	ldr	r5, [pc, #400]	; (8002e70 <_strtod_l+0x590>)
 8002ce0:	eb05 08c8 	add.w	r8, r5, r8, lsl #3
 8002ce4:	e9d8 0100 	ldrd	r0, r1, [r8]
 8002ce8:	4652      	mov	r2, sl
 8002cea:	465b      	mov	r3, fp
 8002cec:	f7fd fcb8 	bl	8000660 <__aeabi_dmul>
 8002cf0:	4682      	mov	sl, r0
 8002cf2:	468b      	mov	fp, r1
 8002cf4:	e634      	b.n	8002960 <_strtod_l+0x80>
 8002cf6:	f1c5 0325 	rsb	r3, r5, #37	; 0x25
 8002cfa:	4598      	cmp	r8, r3
 8002cfc:	dc1e      	bgt.n	8002d3c <_strtod_l+0x45c>
 8002cfe:	4c5c      	ldr	r4, [pc, #368]	; (8002e70 <_strtod_l+0x590>)
 8002d00:	f1c5 050f 	rsb	r5, r5, #15
 8002d04:	eb04 01c5 	add.w	r1, r4, r5, lsl #3
 8002d08:	eba8 0505 	sub.w	r5, r8, r5
 8002d0c:	4652      	mov	r2, sl
 8002d0e:	465b      	mov	r3, fp
 8002d10:	e9d1 0100 	ldrd	r0, r1, [r1]
 8002d14:	eb04 04c5 	add.w	r4, r4, r5, lsl #3
 8002d18:	f7fd fca2 	bl	8000660 <__aeabi_dmul>
 8002d1c:	e9d4 2300 	ldrd	r2, r3, [r4]
 8002d20:	e7e4      	b.n	8002cec <_strtod_l+0x40c>
 8002d22:	f118 0f16 	cmn.w	r8, #22
 8002d26:	db09      	blt.n	8002d3c <_strtod_l+0x45c>
 8002d28:	4d51      	ldr	r5, [pc, #324]	; (8002e70 <_strtod_l+0x590>)
 8002d2a:	eba5 08c8 	sub.w	r8, r5, r8, lsl #3
 8002d2e:	e9d8 2300 	ldrd	r2, r3, [r8]
 8002d32:	4650      	mov	r0, sl
 8002d34:	4659      	mov	r1, fp
 8002d36:	f7fd fdbd 	bl	80008b4 <__aeabi_ddiv>
 8002d3a:	e7d9      	b.n	8002cf0 <_strtod_l+0x410>
 8002d3c:	1b2c      	subs	r4, r5, r4
 8002d3e:	4444      	add	r4, r8
 8002d40:	2c00      	cmp	r4, #0
 8002d42:	dd70      	ble.n	8002e26 <_strtod_l+0x546>
 8002d44:	f014 030f 	ands.w	r3, r4, #15
 8002d48:	d00a      	beq.n	8002d60 <_strtod_l+0x480>
 8002d4a:	4949      	ldr	r1, [pc, #292]	; (8002e70 <_strtod_l+0x590>)
 8002d4c:	eb01 01c3 	add.w	r1, r1, r3, lsl #3
 8002d50:	4652      	mov	r2, sl
 8002d52:	465b      	mov	r3, fp
 8002d54:	e9d1 0100 	ldrd	r0, r1, [r1]
 8002d58:	f7fd fc82 	bl	8000660 <__aeabi_dmul>
 8002d5c:	4682      	mov	sl, r0
 8002d5e:	468b      	mov	fp, r1
 8002d60:	f034 040f 	bics.w	r4, r4, #15
 8002d64:	d050      	beq.n	8002e08 <_strtod_l+0x528>
 8002d66:	f5b4 7f9a 	cmp.w	r4, #308	; 0x134
 8002d6a:	dd23      	ble.n	8002db4 <_strtod_l+0x4d4>
 8002d6c:	2400      	movs	r4, #0
 8002d6e:	4625      	mov	r5, r4
 8002d70:	9407      	str	r4, [sp, #28]
 8002d72:	9406      	str	r4, [sp, #24]
 8002d74:	9a04      	ldr	r2, [sp, #16]
 8002d76:	f8df b108 	ldr.w	fp, [pc, #264]	; 8002e80 <_strtod_l+0x5a0>
 8002d7a:	2322      	movs	r3, #34	; 0x22
 8002d7c:	6013      	str	r3, [r2, #0]
 8002d7e:	f04f 0a00 	mov.w	sl, #0
 8002d82:	9b07      	ldr	r3, [sp, #28]
 8002d84:	2b00      	cmp	r3, #0
 8002d86:	f43f adeb 	beq.w	8002960 <_strtod_l+0x80>
 8002d8a:	991a      	ldr	r1, [sp, #104]	; 0x68
 8002d8c:	9804      	ldr	r0, [sp, #16]
 8002d8e:	f001 fe1a 	bl	80049c6 <_Bfree>
 8002d92:	9906      	ldr	r1, [sp, #24]
 8002d94:	9804      	ldr	r0, [sp, #16]
 8002d96:	f001 fe16 	bl	80049c6 <_Bfree>
 8002d9a:	4629      	mov	r1, r5
 8002d9c:	9804      	ldr	r0, [sp, #16]
 8002d9e:	f001 fe12 	bl	80049c6 <_Bfree>
 8002da2:	9907      	ldr	r1, [sp, #28]
 8002da4:	9804      	ldr	r0, [sp, #16]
 8002da6:	f001 fe0e 	bl	80049c6 <_Bfree>
 8002daa:	4621      	mov	r1, r4
 8002dac:	9804      	ldr	r0, [sp, #16]
 8002dae:	f001 fe0a 	bl	80049c6 <_Bfree>
 8002db2:	e5d5      	b.n	8002960 <_strtod_l+0x80>
 8002db4:	4e2f      	ldr	r6, [pc, #188]	; (8002e74 <_strtod_l+0x594>)
 8002db6:	2300      	movs	r3, #0
 8002db8:	1124      	asrs	r4, r4, #4
 8002dba:	4650      	mov	r0, sl
 8002dbc:	4659      	mov	r1, fp
 8002dbe:	4699      	mov	r9, r3
 8002dc0:	4637      	mov	r7, r6
 8002dc2:	2c01      	cmp	r4, #1
 8002dc4:	dc23      	bgt.n	8002e0e <_strtod_l+0x52e>
 8002dc6:	b10b      	cbz	r3, 8002dcc <_strtod_l+0x4ec>
 8002dc8:	4682      	mov	sl, r0
 8002dca:	468b      	mov	fp, r1
 8002dcc:	f1ab 7b54 	sub.w	fp, fp, #55574528	; 0x3500000
 8002dd0:	eb07 07c9 	add.w	r7, r7, r9, lsl #3
 8002dd4:	4652      	mov	r2, sl
 8002dd6:	465b      	mov	r3, fp
 8002dd8:	e9d7 0100 	ldrd	r0, r1, [r7]
 8002ddc:	f7fd fc40 	bl	8000660 <__aeabi_dmul>
 8002de0:	f021 4300 	bic.w	r3, r1, #2147483648	; 0x80000000
 8002de4:	468b      	mov	fp, r1
 8002de6:	460a      	mov	r2, r1
 8002de8:	0d1b      	lsrs	r3, r3, #20
 8002dea:	4923      	ldr	r1, [pc, #140]	; (8002e78 <_strtod_l+0x598>)
 8002dec:	051b      	lsls	r3, r3, #20
 8002dee:	428b      	cmp	r3, r1
 8002df0:	4682      	mov	sl, r0
 8002df2:	d8bb      	bhi.n	8002d6c <_strtod_l+0x48c>
 8002df4:	f5a1 1180 	sub.w	r1, r1, #1048576	; 0x100000
 8002df8:	428b      	cmp	r3, r1
 8002dfa:	bf86      	itte	hi
 8002dfc:	f8df b084 	ldrhi.w	fp, [pc, #132]	; 8002e84 <_strtod_l+0x5a4>
 8002e00:	f04f 3aff 	movhi.w	sl, #4294967295
 8002e04:	f102 7b54 	addls.w	fp, r2, #55574528	; 0x3500000
 8002e08:	2300      	movs	r3, #0
 8002e0a:	9305      	str	r3, [sp, #20]
 8002e0c:	e06d      	b.n	8002eea <_strtod_l+0x60a>
 8002e0e:	07e2      	lsls	r2, r4, #31
 8002e10:	d504      	bpl.n	8002e1c <_strtod_l+0x53c>
 8002e12:	e9d6 2300 	ldrd	r2, r3, [r6]
 8002e16:	f7fd fc23 	bl	8000660 <__aeabi_dmul>
 8002e1a:	2301      	movs	r3, #1
 8002e1c:	f109 0901 	add.w	r9, r9, #1
 8002e20:	1064      	asrs	r4, r4, #1
 8002e22:	3608      	adds	r6, #8
 8002e24:	e7cd      	b.n	8002dc2 <_strtod_l+0x4e2>
 8002e26:	d0ef      	beq.n	8002e08 <_strtod_l+0x528>
 8002e28:	4264      	negs	r4, r4
 8002e2a:	f014 020f 	ands.w	r2, r4, #15
 8002e2e:	d00a      	beq.n	8002e46 <_strtod_l+0x566>
 8002e30:	4b0f      	ldr	r3, [pc, #60]	; (8002e70 <_strtod_l+0x590>)
 8002e32:	eb03 03c2 	add.w	r3, r3, r2, lsl #3
 8002e36:	4650      	mov	r0, sl
 8002e38:	4659      	mov	r1, fp
 8002e3a:	e9d3 2300 	ldrd	r2, r3, [r3]
 8002e3e:	f7fd fd39 	bl	80008b4 <__aeabi_ddiv>
 8002e42:	4682      	mov	sl, r0
 8002e44:	468b      	mov	fp, r1
 8002e46:	1124      	asrs	r4, r4, #4
 8002e48:	d0de      	beq.n	8002e08 <_strtod_l+0x528>
 8002e4a:	2c1f      	cmp	r4, #31
 8002e4c:	dd1c      	ble.n	8002e88 <_strtod_l+0x5a8>
 8002e4e:	2400      	movs	r4, #0
 8002e50:	4625      	mov	r5, r4
 8002e52:	9407      	str	r4, [sp, #28]
 8002e54:	9406      	str	r4, [sp, #24]
 8002e56:	9a04      	ldr	r2, [sp, #16]
 8002e58:	2322      	movs	r3, #34	; 0x22
 8002e5a:	f04f 0a00 	mov.w	sl, #0
 8002e5e:	f04f 0b00 	mov.w	fp, #0
 8002e62:	6013      	str	r3, [r2, #0]
 8002e64:	e78d      	b.n	8002d82 <_strtod_l+0x4a2>
 8002e66:	bf00      	nop
 8002e68:	08005788 	.word	0x08005788
 8002e6c:	080057c8 	.word	0x080057c8
 8002e70:	080058b0 	.word	0x080058b0
 8002e74:	08005888 	.word	0x08005888
 8002e78:	7ca00000 	.word	0x7ca00000
 8002e7c:	fff80000 	.word	0xfff80000
 8002e80:	7ff00000 	.word	0x7ff00000
 8002e84:	7fefffff 	.word	0x7fefffff
 8002e88:	f014 0310 	ands.w	r3, r4, #16
 8002e8c:	bf18      	it	ne
 8002e8e:	236a      	movne	r3, #106	; 0x6a
 8002e90:	4ea0      	ldr	r6, [pc, #640]	; (8003114 <_strtod_l+0x834>)
 8002e92:	9305      	str	r3, [sp, #20]
 8002e94:	4650      	mov	r0, sl
 8002e96:	4659      	mov	r1, fp
 8002e98:	2300      	movs	r3, #0
 8002e9a:	2c00      	cmp	r4, #0
 8002e9c:	f300 8106 	bgt.w	80030ac <_strtod_l+0x7cc>
 8002ea0:	b10b      	cbz	r3, 8002ea6 <_strtod_l+0x5c6>
 8002ea2:	4682      	mov	sl, r0
 8002ea4:	468b      	mov	fp, r1
 8002ea6:	9b05      	ldr	r3, [sp, #20]
 8002ea8:	b1bb      	cbz	r3, 8002eda <_strtod_l+0x5fa>
 8002eaa:	f3cb 530a 	ubfx	r3, fp, #20, #11
 8002eae:	f1c3 036b 	rsb	r3, r3, #107	; 0x6b
 8002eb2:	2b00      	cmp	r3, #0
 8002eb4:	4659      	mov	r1, fp
 8002eb6:	dd10      	ble.n	8002eda <_strtod_l+0x5fa>
 8002eb8:	2b1f      	cmp	r3, #31
 8002eba:	f340 8101 	ble.w	80030c0 <_strtod_l+0x7e0>
 8002ebe:	2b34      	cmp	r3, #52	; 0x34
 8002ec0:	bfde      	ittt	le
 8002ec2:	3b20      	suble	r3, #32
 8002ec4:	f04f 32ff 	movle.w	r2, #4294967295
 8002ec8:	fa02 f303 	lslle.w	r3, r2, r3
 8002ecc:	f04f 0a00 	mov.w	sl, #0
 8002ed0:	bfcc      	ite	gt
 8002ed2:	f04f 7b5c 	movgt.w	fp, #57671680	; 0x3700000
 8002ed6:	ea03 0b01 	andle.w	fp, r3, r1
 8002eda:	2200      	movs	r2, #0
 8002edc:	2300      	movs	r3, #0
 8002ede:	4650      	mov	r0, sl
 8002ee0:	4659      	mov	r1, fp
 8002ee2:	f7fd fe25 	bl	8000b30 <__aeabi_dcmpeq>
 8002ee6:	2800      	cmp	r0, #0
 8002ee8:	d1b1      	bne.n	8002e4e <_strtod_l+0x56e>
 8002eea:	9b07      	ldr	r3, [sp, #28]
 8002eec:	9300      	str	r3, [sp, #0]
 8002eee:	9a06      	ldr	r2, [sp, #24]
 8002ef0:	990a      	ldr	r1, [sp, #40]	; 0x28
 8002ef2:	9804      	ldr	r0, [sp, #16]
 8002ef4:	462b      	mov	r3, r5
 8002ef6:	f001 fdb8 	bl	8004a6a <__s2b>
 8002efa:	9007      	str	r0, [sp, #28]
 8002efc:	2800      	cmp	r0, #0
 8002efe:	f43f af35 	beq.w	8002d6c <_strtod_l+0x48c>
 8002f02:	f1b8 0f00 	cmp.w	r8, #0
 8002f06:	f1c8 0300 	rsb	r3, r8, #0
 8002f0a:	bfa8      	it	ge
 8002f0c:	2300      	movge	r3, #0
 8002f0e:	930e      	str	r3, [sp, #56]	; 0x38
 8002f10:	2400      	movs	r4, #0
 8002f12:	ea28 73e8 	bic.w	r3, r8, r8, asr #31
 8002f16:	930f      	str	r3, [sp, #60]	; 0x3c
 8002f18:	4625      	mov	r5, r4
 8002f1a:	9b07      	ldr	r3, [sp, #28]
 8002f1c:	9804      	ldr	r0, [sp, #16]
 8002f1e:	6859      	ldr	r1, [r3, #4]
 8002f20:	f001 fd1d 	bl	800495e <_Balloc>
 8002f24:	9006      	str	r0, [sp, #24]
 8002f26:	2800      	cmp	r0, #0
 8002f28:	f43f af24 	beq.w	8002d74 <_strtod_l+0x494>
 8002f2c:	9b07      	ldr	r3, [sp, #28]
 8002f2e:	691a      	ldr	r2, [r3, #16]
 8002f30:	3202      	adds	r2, #2
 8002f32:	f103 010c 	add.w	r1, r3, #12
 8002f36:	0092      	lsls	r2, r2, #2
 8002f38:	300c      	adds	r0, #12
 8002f3a:	f001 fd05 	bl	8004948 <memcpy>
 8002f3e:	aa1c      	add	r2, sp, #112	; 0x70
 8002f40:	a91b      	add	r1, sp, #108	; 0x6c
 8002f42:	ec4b ab10 	vmov	d0, sl, fp
 8002f46:	9804      	ldr	r0, [sp, #16]
 8002f48:	e9cd ab0a 	strd	sl, fp, [sp, #40]	; 0x28
 8002f4c:	f002 f83e 	bl	8004fcc <__d2b>
 8002f50:	901a      	str	r0, [sp, #104]	; 0x68
 8002f52:	2800      	cmp	r0, #0
 8002f54:	f43f af0e 	beq.w	8002d74 <_strtod_l+0x494>
 8002f58:	2101      	movs	r1, #1
 8002f5a:	9804      	ldr	r0, [sp, #16]
 8002f5c:	f001 fe11 	bl	8004b82 <__i2b>
 8002f60:	4605      	mov	r5, r0
 8002f62:	2800      	cmp	r0, #0
 8002f64:	f43f af06 	beq.w	8002d74 <_strtod_l+0x494>
 8002f68:	9e1b      	ldr	r6, [sp, #108]	; 0x6c
 8002f6a:	9a1c      	ldr	r2, [sp, #112]	; 0x70
 8002f6c:	2e00      	cmp	r6, #0
 8002f6e:	bfab      	itete	ge
 8002f70:	9b0e      	ldrge	r3, [sp, #56]	; 0x38
 8002f72:	9b0f      	ldrlt	r3, [sp, #60]	; 0x3c
 8002f74:	9f0f      	ldrge	r7, [sp, #60]	; 0x3c
 8002f76:	f8dd 8038 	ldrlt.w	r8, [sp, #56]	; 0x38
 8002f7a:	bfac      	ite	ge
 8002f7c:	eb03 0806 	addge.w	r8, r3, r6
 8002f80:	1b9f      	sublt	r7, r3, r6
 8002f82:	9b05      	ldr	r3, [sp, #20]
 8002f84:	1af6      	subs	r6, r6, r3
 8002f86:	4416      	add	r6, r2
 8002f88:	4b63      	ldr	r3, [pc, #396]	; (8003118 <_strtod_l+0x838>)
 8002f8a:	3e01      	subs	r6, #1
 8002f8c:	429e      	cmp	r6, r3
 8002f8e:	f1c2 0236 	rsb	r2, r2, #54	; 0x36
 8002f92:	f280 80a8 	bge.w	80030e6 <_strtod_l+0x806>
 8002f96:	1b9b      	subs	r3, r3, r6
 8002f98:	2b1f      	cmp	r3, #31
 8002f9a:	eba2 0203 	sub.w	r2, r2, r3
 8002f9e:	f04f 0901 	mov.w	r9, #1
 8002fa2:	f300 8094 	bgt.w	80030ce <_strtod_l+0x7ee>
 8002fa6:	fa09 f303 	lsl.w	r3, r9, r3
 8002faa:	9314      	str	r3, [sp, #80]	; 0x50
 8002fac:	2600      	movs	r6, #0
 8002fae:	eb08 0902 	add.w	r9, r8, r2
 8002fb2:	9b05      	ldr	r3, [sp, #20]
 8002fb4:	45c8      	cmp	r8, r9
 8002fb6:	4417      	add	r7, r2
 8002fb8:	441f      	add	r7, r3
 8002fba:	4643      	mov	r3, r8
 8002fbc:	bfa8      	it	ge
 8002fbe:	464b      	movge	r3, r9
 8002fc0:	42bb      	cmp	r3, r7
 8002fc2:	bfa8      	it	ge
 8002fc4:	463b      	movge	r3, r7
 8002fc6:	2b00      	cmp	r3, #0
 8002fc8:	bfc2      	ittt	gt
 8002fca:	eba9 0903 	subgt.w	r9, r9, r3
 8002fce:	1aff      	subgt	r7, r7, r3
 8002fd0:	eba8 0803 	subgt.w	r8, r8, r3
 8002fd4:	9b0e      	ldr	r3, [sp, #56]	; 0x38
 8002fd6:	b1bb      	cbz	r3, 8003008 <_strtod_l+0x728>
 8002fd8:	4629      	mov	r1, r5
 8002fda:	461a      	mov	r2, r3
 8002fdc:	9804      	ldr	r0, [sp, #16]
 8002fde:	f001 fe67 	bl	8004cb0 <__pow5mult>
 8002fe2:	4605      	mov	r5, r0
 8002fe4:	2800      	cmp	r0, #0
 8002fe6:	f43f aec5 	beq.w	8002d74 <_strtod_l+0x494>
 8002fea:	4601      	mov	r1, r0
 8002fec:	9a1a      	ldr	r2, [sp, #104]	; 0x68
 8002fee:	9804      	ldr	r0, [sp, #16]
 8002ff0:	f001 fdd0 	bl	8004b94 <__multiply>
 8002ff4:	9008      	str	r0, [sp, #32]
 8002ff6:	2800      	cmp	r0, #0
 8002ff8:	f43f aebc 	beq.w	8002d74 <_strtod_l+0x494>
 8002ffc:	991a      	ldr	r1, [sp, #104]	; 0x68
 8002ffe:	9804      	ldr	r0, [sp, #16]
 8003000:	f001 fce1 	bl	80049c6 <_Bfree>
 8003004:	9b08      	ldr	r3, [sp, #32]
 8003006:	931a      	str	r3, [sp, #104]	; 0x68
 8003008:	f1b9 0f00 	cmp.w	r9, #0
 800300c:	dc6f      	bgt.n	80030ee <_strtod_l+0x80e>
 800300e:	9b0f      	ldr	r3, [sp, #60]	; 0x3c
 8003010:	2b00      	cmp	r3, #0
 8003012:	d175      	bne.n	8003100 <_strtod_l+0x820>
 8003014:	2f00      	cmp	r7, #0
 8003016:	dd08      	ble.n	800302a <_strtod_l+0x74a>
 8003018:	463a      	mov	r2, r7
 800301a:	9906      	ldr	r1, [sp, #24]
 800301c:	9804      	ldr	r0, [sp, #16]
 800301e:	f001 fe95 	bl	8004d4c <__lshift>
 8003022:	9006      	str	r0, [sp, #24]
 8003024:	2800      	cmp	r0, #0
 8003026:	f43f aea5 	beq.w	8002d74 <_strtod_l+0x494>
 800302a:	f1b8 0f00 	cmp.w	r8, #0
 800302e:	dd08      	ble.n	8003042 <_strtod_l+0x762>
 8003030:	4629      	mov	r1, r5
 8003032:	4642      	mov	r2, r8
 8003034:	9804      	ldr	r0, [sp, #16]
 8003036:	f001 fe89 	bl	8004d4c <__lshift>
 800303a:	4605      	mov	r5, r0
 800303c:	2800      	cmp	r0, #0
 800303e:	f43f ae99 	beq.w	8002d74 <_strtod_l+0x494>
 8003042:	9a06      	ldr	r2, [sp, #24]
 8003044:	991a      	ldr	r1, [sp, #104]	; 0x68
 8003046:	9804      	ldr	r0, [sp, #16]
 8003048:	f001 feeb 	bl	8004e22 <__mdiff>
 800304c:	4604      	mov	r4, r0
 800304e:	2800      	cmp	r0, #0
 8003050:	f43f ae90 	beq.w	8002d74 <_strtod_l+0x494>
 8003054:	68c3      	ldr	r3, [r0, #12]
 8003056:	9308      	str	r3, [sp, #32]
 8003058:	2300      	movs	r3, #0
 800305a:	60c3      	str	r3, [r0, #12]
 800305c:	4629      	mov	r1, r5
 800305e:	f001 fec6 	bl	8004dee <__mcmp>
 8003062:	2800      	cmp	r0, #0
 8003064:	da5a      	bge.n	800311c <_strtod_l+0x83c>
 8003066:	9b08      	ldr	r3, [sp, #32]
 8003068:	b9e3      	cbnz	r3, 80030a4 <_strtod_l+0x7c4>
 800306a:	f1ba 0f00 	cmp.w	sl, #0
 800306e:	d119      	bne.n	80030a4 <_strtod_l+0x7c4>
 8003070:	f3cb 0313 	ubfx	r3, fp, #0, #20
 8003074:	b9b3      	cbnz	r3, 80030a4 <_strtod_l+0x7c4>
 8003076:	f02b 4300 	bic.w	r3, fp, #2147483648	; 0x80000000
 800307a:	0d1b      	lsrs	r3, r3, #20
 800307c:	051b      	lsls	r3, r3, #20
 800307e:	f1b3 6fd6 	cmp.w	r3, #112197632	; 0x6b00000
 8003082:	d90f      	bls.n	80030a4 <_strtod_l+0x7c4>
 8003084:	6963      	ldr	r3, [r4, #20]
 8003086:	b913      	cbnz	r3, 800308e <_strtod_l+0x7ae>
 8003088:	6923      	ldr	r3, [r4, #16]
 800308a:	2b01      	cmp	r3, #1
 800308c:	dd0a      	ble.n	80030a4 <_strtod_l+0x7c4>
 800308e:	4621      	mov	r1, r4
 8003090:	2201      	movs	r2, #1
 8003092:	9804      	ldr	r0, [sp, #16]
 8003094:	f001 fe5a 	bl	8004d4c <__lshift>
 8003098:	4629      	mov	r1, r5
 800309a:	4604      	mov	r4, r0
 800309c:	f001 fea7 	bl	8004dee <__mcmp>
 80030a0:	2800      	cmp	r0, #0
 80030a2:	dc6c      	bgt.n	800317e <_strtod_l+0x89e>
 80030a4:	9b05      	ldr	r3, [sp, #20]
 80030a6:	2b00      	cmp	r3, #0
 80030a8:	d176      	bne.n	8003198 <_strtod_l+0x8b8>
 80030aa:	e66e      	b.n	8002d8a <_strtod_l+0x4aa>
 80030ac:	07e2      	lsls	r2, r4, #31
 80030ae:	d504      	bpl.n	80030ba <_strtod_l+0x7da>
 80030b0:	e9d6 2300 	ldrd	r2, r3, [r6]
 80030b4:	f7fd fad4 	bl	8000660 <__aeabi_dmul>
 80030b8:	2301      	movs	r3, #1
 80030ba:	1064      	asrs	r4, r4, #1
 80030bc:	3608      	adds	r6, #8
 80030be:	e6ec      	b.n	8002e9a <_strtod_l+0x5ba>
 80030c0:	f04f 32ff 	mov.w	r2, #4294967295
 80030c4:	fa02 f303 	lsl.w	r3, r2, r3
 80030c8:	ea03 0a0a 	and.w	sl, r3, sl
 80030cc:	e705      	b.n	8002eda <_strtod_l+0x5fa>
 80030ce:	f1c6 467f 	rsb	r6, r6, #4278190080	; 0xff000000
 80030d2:	f506 067f 	add.w	r6, r6, #16711680	; 0xff0000
 80030d6:	f506 467b 	add.w	r6, r6, #64256	; 0xfb00
 80030da:	36e2      	adds	r6, #226	; 0xe2
 80030dc:	fa09 f606 	lsl.w	r6, r9, r6
 80030e0:	f8cd 9050 	str.w	r9, [sp, #80]	; 0x50
 80030e4:	e763      	b.n	8002fae <_strtod_l+0x6ce>
 80030e6:	2301      	movs	r3, #1
 80030e8:	2600      	movs	r6, #0
 80030ea:	9314      	str	r3, [sp, #80]	; 0x50
 80030ec:	e75f      	b.n	8002fae <_strtod_l+0x6ce>
 80030ee:	464a      	mov	r2, r9
 80030f0:	991a      	ldr	r1, [sp, #104]	; 0x68
 80030f2:	9804      	ldr	r0, [sp, #16]
 80030f4:	f001 fe2a 	bl	8004d4c <__lshift>
 80030f8:	901a      	str	r0, [sp, #104]	; 0x68
 80030fa:	2800      	cmp	r0, #0
 80030fc:	d187      	bne.n	800300e <_strtod_l+0x72e>
 80030fe:	e639      	b.n	8002d74 <_strtod_l+0x494>
 8003100:	9a0f      	ldr	r2, [sp, #60]	; 0x3c
 8003102:	9906      	ldr	r1, [sp, #24]
 8003104:	9804      	ldr	r0, [sp, #16]
 8003106:	f001 fdd3 	bl	8004cb0 <__pow5mult>
 800310a:	9006      	str	r0, [sp, #24]
 800310c:	2800      	cmp	r0, #0
 800310e:	d181      	bne.n	8003014 <_strtod_l+0x734>
 8003110:	e630      	b.n	8002d74 <_strtod_l+0x494>
 8003112:	bf00      	nop
 8003114:	080057e0 	.word	0x080057e0
 8003118:	fffffc02 	.word	0xfffffc02
 800311c:	f040 8086 	bne.w	800322c <_strtod_l+0x94c>
 8003120:	9a08      	ldr	r2, [sp, #32]
 8003122:	f3cb 0313 	ubfx	r3, fp, #0, #20
 8003126:	b332      	cbz	r2, 8003176 <_strtod_l+0x896>
 8003128:	4aad      	ldr	r2, [pc, #692]	; (80033e0 <_strtod_l+0xb00>)
 800312a:	4293      	cmp	r3, r2
 800312c:	4659      	mov	r1, fp
 800312e:	d152      	bne.n	80031d6 <_strtod_l+0x8f6>
 8003130:	9b05      	ldr	r3, [sp, #20]
 8003132:	4650      	mov	r0, sl
 8003134:	b1d3      	cbz	r3, 800316c <_strtod_l+0x88c>
 8003136:	4aab      	ldr	r2, [pc, #684]	; (80033e4 <_strtod_l+0xb04>)
 8003138:	400a      	ands	r2, r1
 800313a:	f1b2 6fd4 	cmp.w	r2, #111149056	; 0x6a00000
 800313e:	f04f 37ff 	mov.w	r7, #4294967295
 8003142:	d816      	bhi.n	8003172 <_strtod_l+0x892>
 8003144:	0d12      	lsrs	r2, r2, #20
 8003146:	f1c2 036b 	rsb	r3, r2, #107	; 0x6b
 800314a:	fa07 f303 	lsl.w	r3, r7, r3
 800314e:	4283      	cmp	r3, r0
 8003150:	d141      	bne.n	80031d6 <_strtod_l+0x8f6>
 8003152:	4aa5      	ldr	r2, [pc, #660]	; (80033e8 <_strtod_l+0xb08>)
 8003154:	4291      	cmp	r1, r2
 8003156:	d102      	bne.n	800315e <_strtod_l+0x87e>
 8003158:	3301      	adds	r3, #1
 800315a:	f43f ae0b 	beq.w	8002d74 <_strtod_l+0x494>
 800315e:	4ba1      	ldr	r3, [pc, #644]	; (80033e4 <_strtod_l+0xb04>)
 8003160:	400b      	ands	r3, r1
 8003162:	f503 1b80 	add.w	fp, r3, #1048576	; 0x100000
 8003166:	f04f 0a00 	mov.w	sl, #0
 800316a:	e79b      	b.n	80030a4 <_strtod_l+0x7c4>
 800316c:	f04f 33ff 	mov.w	r3, #4294967295
 8003170:	e7ed      	b.n	800314e <_strtod_l+0x86e>
 8003172:	463b      	mov	r3, r7
 8003174:	e7eb      	b.n	800314e <_strtod_l+0x86e>
 8003176:	bb73      	cbnz	r3, 80031d6 <_strtod_l+0x8f6>
 8003178:	f1ba 0f00 	cmp.w	sl, #0
 800317c:	d12b      	bne.n	80031d6 <_strtod_l+0x8f6>
 800317e:	f02b 4300 	bic.w	r3, fp, #2147483648	; 0x80000000
 8003182:	9a05      	ldr	r2, [sp, #20]
 8003184:	0d1b      	lsrs	r3, r3, #20
 8003186:	051b      	lsls	r3, r3, #20
 8003188:	b1e2      	cbz	r2, 80031c4 <_strtod_l+0x8e4>
 800318a:	f1b3 6fd6 	cmp.w	r3, #112197632	; 0x6b00000
 800318e:	dc19      	bgt.n	80031c4 <_strtod_l+0x8e4>
 8003190:	f1b3 7f5c 	cmp.w	r3, #57671680	; 0x3700000
 8003194:	f77f ae5f 	ble.w	8002e56 <_strtod_l+0x576>
 8003198:	4b94      	ldr	r3, [pc, #592]	; (80033ec <_strtod_l+0xb0c>)
 800319a:	930d      	str	r3, [sp, #52]	; 0x34
 800319c:	2300      	movs	r3, #0
 800319e:	930c      	str	r3, [sp, #48]	; 0x30
 80031a0:	4650      	mov	r0, sl
 80031a2:	4659      	mov	r1, fp
 80031a4:	e9dd 230c 	ldrd	r2, r3, [sp, #48]	; 0x30
 80031a8:	f7fd fa5a 	bl	8000660 <__aeabi_dmul>
 80031ac:	4682      	mov	sl, r0
 80031ae:	468b      	mov	fp, r1
 80031b0:	2900      	cmp	r1, #0
 80031b2:	f47f adea 	bne.w	8002d8a <_strtod_l+0x4aa>
 80031b6:	2800      	cmp	r0, #0
 80031b8:	f47f ade7 	bne.w	8002d8a <_strtod_l+0x4aa>
 80031bc:	9a04      	ldr	r2, [sp, #16]
 80031be:	2322      	movs	r3, #34	; 0x22
 80031c0:	6013      	str	r3, [r2, #0]
 80031c2:	e5e2      	b.n	8002d8a <_strtod_l+0x4aa>
 80031c4:	f5a3 1380 	sub.w	r3, r3, #1048576	; 0x100000
 80031c8:	ea6f 5b13 	mvn.w	fp, r3, lsr #20
 80031cc:	ea6f 5b0b 	mvn.w	fp, fp, lsl #20
 80031d0:	f04f 3aff 	mov.w	sl, #4294967295
 80031d4:	e766      	b.n	80030a4 <_strtod_l+0x7c4>
 80031d6:	b19e      	cbz	r6, 8003200 <_strtod_l+0x920>
 80031d8:	ea16 0f0b 	tst.w	r6, fp
 80031dc:	f43f af62 	beq.w	80030a4 <_strtod_l+0x7c4>
 80031e0:	9b08      	ldr	r3, [sp, #32]
 80031e2:	9a05      	ldr	r2, [sp, #20]
 80031e4:	4650      	mov	r0, sl
 80031e6:	4659      	mov	r1, fp
 80031e8:	b173      	cbz	r3, 8003208 <_strtod_l+0x928>
 80031ea:	f7ff fb5d 	bl	80028a8 <sulp>
 80031ee:	4602      	mov	r2, r0
 80031f0:	460b      	mov	r3, r1
 80031f2:	e9dd 010a 	ldrd	r0, r1, [sp, #40]	; 0x28
 80031f6:	f7fd f881 	bl	80002fc <__adddf3>
 80031fa:	4682      	mov	sl, r0
 80031fc:	468b      	mov	fp, r1
 80031fe:	e751      	b.n	80030a4 <_strtod_l+0x7c4>
 8003200:	9b14      	ldr	r3, [sp, #80]	; 0x50
 8003202:	ea13 0f0a 	tst.w	r3, sl
 8003206:	e7e9      	b.n	80031dc <_strtod_l+0x8fc>
 8003208:	f7ff fb4e 	bl	80028a8 <sulp>
 800320c:	4602      	mov	r2, r0
 800320e:	460b      	mov	r3, r1
 8003210:	e9dd 010a 	ldrd	r0, r1, [sp, #40]	; 0x28
 8003214:	f7fd f870 	bl	80002f8 <__aeabi_dsub>
 8003218:	2200      	movs	r2, #0
 800321a:	2300      	movs	r3, #0
 800321c:	4682      	mov	sl, r0
 800321e:	468b      	mov	fp, r1
 8003220:	f7fd fc86 	bl	8000b30 <__aeabi_dcmpeq>
 8003224:	2800      	cmp	r0, #0
 8003226:	f47f ae16 	bne.w	8002e56 <_strtod_l+0x576>
 800322a:	e73b      	b.n	80030a4 <_strtod_l+0x7c4>
 800322c:	4629      	mov	r1, r5
 800322e:	4620      	mov	r0, r4
 8003230:	f001 ff1b 	bl	800506a <__ratio>
 8003234:	ec57 6b10 	vmov	r6, r7, d0
 8003238:	2200      	movs	r2, #0
 800323a:	f04f 4380 	mov.w	r3, #1073741824	; 0x40000000
 800323e:	ee10 0a10 	vmov	r0, s0
 8003242:	4639      	mov	r1, r7
 8003244:	f7fd fc88 	bl	8000b58 <__aeabi_dcmple>
 8003248:	2800      	cmp	r0, #0
 800324a:	d074      	beq.n	8003336 <_strtod_l+0xa56>
 800324c:	9b08      	ldr	r3, [sp, #32]
 800324e:	2b00      	cmp	r3, #0
 8003250:	d046      	beq.n	80032e0 <_strtod_l+0xa00>
 8003252:	f8df 919c 	ldr.w	r9, [pc, #412]	; 80033f0 <_strtod_l+0xb10>
 8003256:	f04f 0800 	mov.w	r8, #0
 800325a:	4f65      	ldr	r7, [pc, #404]	; (80033f0 <_strtod_l+0xb10>)
 800325c:	2600      	movs	r6, #0
 800325e:	4b61      	ldr	r3, [pc, #388]	; (80033e4 <_strtod_l+0xb04>)
 8003260:	ea0b 0303 	and.w	r3, fp, r3
 8003264:	9314      	str	r3, [sp, #80]	; 0x50
 8003266:	9a14      	ldr	r2, [sp, #80]	; 0x50
 8003268:	4b62      	ldr	r3, [pc, #392]	; (80033f4 <_strtod_l+0xb14>)
 800326a:	429a      	cmp	r2, r3
 800326c:	f040 80ca 	bne.w	8003404 <_strtod_l+0xb24>
 8003270:	e9dd 230a 	ldrd	r2, r3, [sp, #40]	; 0x28
 8003274:	f1ab 7b54 	sub.w	fp, fp, #55574528	; 0x3500000
 8003278:	ec4b ab10 	vmov	d0, sl, fp
 800327c:	e9cd 230c 	strd	r2, r3, [sp, #48]	; 0x30
 8003280:	f001 fe2e 	bl	8004ee0 <__ulp>
 8003284:	4640      	mov	r0, r8
 8003286:	ec53 2b10 	vmov	r2, r3, d0
 800328a:	4649      	mov	r1, r9
 800328c:	f7fd f9e8 	bl	8000660 <__aeabi_dmul>
 8003290:	4652      	mov	r2, sl
 8003292:	465b      	mov	r3, fp
 8003294:	f7fd f832 	bl	80002fc <__adddf3>
 8003298:	4a52      	ldr	r2, [pc, #328]	; (80033e4 <_strtod_l+0xb04>)
 800329a:	4b57      	ldr	r3, [pc, #348]	; (80033f8 <_strtod_l+0xb18>)
 800329c:	400a      	ands	r2, r1
 800329e:	429a      	cmp	r2, r3
 80032a0:	4682      	mov	sl, r0
 80032a2:	d95c      	bls.n	800335e <_strtod_l+0xa7e>
 80032a4:	9a0d      	ldr	r2, [sp, #52]	; 0x34
 80032a6:	f103 7354 	add.w	r3, r3, #55574528	; 0x3500000
 80032aa:	429a      	cmp	r2, r3
 80032ac:	d103      	bne.n	80032b6 <_strtod_l+0x9d6>
 80032ae:	9b0c      	ldr	r3, [sp, #48]	; 0x30
 80032b0:	3301      	adds	r3, #1
 80032b2:	f43f ad5f 	beq.w	8002d74 <_strtod_l+0x494>
 80032b6:	f8df b130 	ldr.w	fp, [pc, #304]	; 80033e8 <_strtod_l+0xb08>
 80032ba:	f04f 3aff 	mov.w	sl, #4294967295
 80032be:	991a      	ldr	r1, [sp, #104]	; 0x68
 80032c0:	9804      	ldr	r0, [sp, #16]
 80032c2:	f001 fb80 	bl	80049c6 <_Bfree>
 80032c6:	9906      	ldr	r1, [sp, #24]
 80032c8:	9804      	ldr	r0, [sp, #16]
 80032ca:	f001 fb7c 	bl	80049c6 <_Bfree>
 80032ce:	4629      	mov	r1, r5
 80032d0:	9804      	ldr	r0, [sp, #16]
 80032d2:	f001 fb78 	bl	80049c6 <_Bfree>
 80032d6:	4621      	mov	r1, r4
 80032d8:	9804      	ldr	r0, [sp, #16]
 80032da:	f001 fb74 	bl	80049c6 <_Bfree>
 80032de:	e61c      	b.n	8002f1a <_strtod_l+0x63a>
 80032e0:	f1ba 0f00 	cmp.w	sl, #0
 80032e4:	d118      	bne.n	8003318 <_strtod_l+0xa38>
 80032e6:	f3cb 0313 	ubfx	r3, fp, #0, #20
 80032ea:	b9e3      	cbnz	r3, 8003326 <_strtod_l+0xa46>
 80032ec:	2200      	movs	r2, #0
 80032ee:	4b40      	ldr	r3, [pc, #256]	; (80033f0 <_strtod_l+0xb10>)
 80032f0:	4630      	mov	r0, r6
 80032f2:	4639      	mov	r1, r7
 80032f4:	f7fd fc26 	bl	8000b44 <__aeabi_dcmplt>
 80032f8:	b9d0      	cbnz	r0, 8003330 <_strtod_l+0xa50>
 80032fa:	4630      	mov	r0, r6
 80032fc:	4639      	mov	r1, r7
 80032fe:	2200      	movs	r2, #0
 8003300:	4b3e      	ldr	r3, [pc, #248]	; (80033fc <_strtod_l+0xb1c>)
 8003302:	f7fd f9ad 	bl	8000660 <__aeabi_dmul>
 8003306:	4606      	mov	r6, r0
 8003308:	460f      	mov	r7, r1
 800330a:	f107 4300 	add.w	r3, r7, #2147483648	; 0x80000000
 800330e:	9616      	str	r6, [sp, #88]	; 0x58
 8003310:	9317      	str	r3, [sp, #92]	; 0x5c
 8003312:	e9dd 8916 	ldrd	r8, r9, [sp, #88]	; 0x58
 8003316:	e7a2      	b.n	800325e <_strtod_l+0x97e>
 8003318:	f1ba 0f01 	cmp.w	sl, #1
 800331c:	d103      	bne.n	8003326 <_strtod_l+0xa46>
 800331e:	f1bb 0f00 	cmp.w	fp, #0
 8003322:	f43f ad98 	beq.w	8002e56 <_strtod_l+0x576>
 8003326:	f04f 0800 	mov.w	r8, #0
 800332a:	f8df 90d4 	ldr.w	r9, [pc, #212]	; 8003400 <_strtod_l+0xb20>
 800332e:	e794      	b.n	800325a <_strtod_l+0x97a>
 8003330:	2600      	movs	r6, #0
 8003332:	4f32      	ldr	r7, [pc, #200]	; (80033fc <_strtod_l+0xb1c>)
 8003334:	e7e9      	b.n	800330a <_strtod_l+0xa2a>
 8003336:	4b31      	ldr	r3, [pc, #196]	; (80033fc <_strtod_l+0xb1c>)
 8003338:	4630      	mov	r0, r6
 800333a:	4639      	mov	r1, r7
 800333c:	2200      	movs	r2, #0
 800333e:	f7fd f98f 	bl	8000660 <__aeabi_dmul>
 8003342:	9b08      	ldr	r3, [sp, #32]
 8003344:	4606      	mov	r6, r0
 8003346:	460f      	mov	r7, r1
 8003348:	b933      	cbnz	r3, 8003358 <_strtod_l+0xa78>
 800334a:	f101 4300 	add.w	r3, r1, #2147483648	; 0x80000000
 800334e:	9010      	str	r0, [sp, #64]	; 0x40
 8003350:	9311      	str	r3, [sp, #68]	; 0x44
 8003352:	e9dd 8910 	ldrd	r8, r9, [sp, #64]	; 0x40
 8003356:	e782      	b.n	800325e <_strtod_l+0x97e>
 8003358:	e9cd 6710 	strd	r6, r7, [sp, #64]	; 0x40
 800335c:	e7f9      	b.n	8003352 <_strtod_l+0xa72>
 800335e:	f101 7b54 	add.w	fp, r1, #55574528	; 0x3500000
 8003362:	9b05      	ldr	r3, [sp, #20]
 8003364:	2b00      	cmp	r3, #0
 8003366:	d1aa      	bne.n	80032be <_strtod_l+0x9de>
 8003368:	f02b 4300 	bic.w	r3, fp, #2147483648	; 0x80000000
 800336c:	0d1b      	lsrs	r3, r3, #20
 800336e:	9a14      	ldr	r2, [sp, #80]	; 0x50
 8003370:	051b      	lsls	r3, r3, #20
 8003372:	429a      	cmp	r2, r3
 8003374:	46d8      	mov	r8, fp
 8003376:	d1a2      	bne.n	80032be <_strtod_l+0x9de>
 8003378:	4639      	mov	r1, r7
 800337a:	4630      	mov	r0, r6
 800337c:	f7fd fc20 	bl	8000bc0 <__aeabi_d2iz>
 8003380:	f7fd f908 	bl	8000594 <__aeabi_i2d>
 8003384:	460b      	mov	r3, r1
 8003386:	4602      	mov	r2, r0
 8003388:	4639      	mov	r1, r7
 800338a:	4630      	mov	r0, r6
 800338c:	f7fc ffb4 	bl	80002f8 <__aeabi_dsub>
 8003390:	9b08      	ldr	r3, [sp, #32]
 8003392:	4606      	mov	r6, r0
 8003394:	460f      	mov	r7, r1
 8003396:	b933      	cbnz	r3, 80033a6 <_strtod_l+0xac6>
 8003398:	f1ba 0f00 	cmp.w	sl, #0
 800339c:	d103      	bne.n	80033a6 <_strtod_l+0xac6>
 800339e:	f3cb 0313 	ubfx	r3, fp, #0, #20
 80033a2:	2b00      	cmp	r3, #0
 80033a4:	d068      	beq.n	8003478 <_strtod_l+0xb98>
 80033a6:	a30a      	add	r3, pc, #40	; (adr r3, 80033d0 <_strtod_l+0xaf0>)
 80033a8:	e9d3 2300 	ldrd	r2, r3, [r3]
 80033ac:	4630      	mov	r0, r6
 80033ae:	4639      	mov	r1, r7
 80033b0:	f7fd fbc8 	bl	8000b44 <__aeabi_dcmplt>
 80033b4:	2800      	cmp	r0, #0
 80033b6:	f47f ace8 	bne.w	8002d8a <_strtod_l+0x4aa>
 80033ba:	a307      	add	r3, pc, #28	; (adr r3, 80033d8 <_strtod_l+0xaf8>)
 80033bc:	e9d3 2300 	ldrd	r2, r3, [r3]
 80033c0:	4630      	mov	r0, r6
 80033c2:	4639      	mov	r1, r7
 80033c4:	f7fd fbdc 	bl	8000b80 <__aeabi_dcmpgt>
 80033c8:	2800      	cmp	r0, #0
 80033ca:	f43f af78 	beq.w	80032be <_strtod_l+0x9de>
 80033ce:	e4dc      	b.n	8002d8a <_strtod_l+0x4aa>
 80033d0:	94a03595 	.word	0x94a03595
 80033d4:	3fdfffff 	.word	0x3fdfffff
 80033d8:	35afe535 	.word	0x35afe535
 80033dc:	3fe00000 	.word	0x3fe00000
 80033e0:	000fffff 	.word	0x000fffff
 80033e4:	7ff00000 	.word	0x7ff00000
 80033e8:	7fefffff 	.word	0x7fefffff
 80033ec:	39500000 	.word	0x39500000
 80033f0:	3ff00000 	.word	0x3ff00000
 80033f4:	7fe00000 	.word	0x7fe00000
 80033f8:	7c9fffff 	.word	0x7c9fffff
 80033fc:	3fe00000 	.word	0x3fe00000
 8003400:	bff00000 	.word	0xbff00000
 8003404:	9b05      	ldr	r3, [sp, #20]
 8003406:	b31b      	cbz	r3, 8003450 <_strtod_l+0xb70>
 8003408:	9b14      	ldr	r3, [sp, #80]	; 0x50
 800340a:	f1b3 6fd4 	cmp.w	r3, #111149056	; 0x6a00000
 800340e:	d81f      	bhi.n	8003450 <_strtod_l+0xb70>
 8003410:	a325      	add	r3, pc, #148	; (adr r3, 80034a8 <_strtod_l+0xbc8>)
 8003412:	e9d3 2300 	ldrd	r2, r3, [r3]
 8003416:	4630      	mov	r0, r6
 8003418:	4639      	mov	r1, r7
 800341a:	f7fd fb9d 	bl	8000b58 <__aeabi_dcmple>
 800341e:	b190      	cbz	r0, 8003446 <_strtod_l+0xb66>
 8003420:	4639      	mov	r1, r7
 8003422:	4630      	mov	r0, r6
 8003424:	f7fd fbf4 	bl	8000c10 <__aeabi_d2uiz>
 8003428:	2800      	cmp	r0, #0
 800342a:	bf08      	it	eq
 800342c:	2001      	moveq	r0, #1
 800342e:	f7fd f8a1 	bl	8000574 <__aeabi_ui2d>
 8003432:	9b08      	ldr	r3, [sp, #32]
 8003434:	4606      	mov	r6, r0
 8003436:	460f      	mov	r7, r1
 8003438:	b9db      	cbnz	r3, 8003472 <_strtod_l+0xb92>
 800343a:	f101 4300 	add.w	r3, r1, #2147483648	; 0x80000000
 800343e:	9012      	str	r0, [sp, #72]	; 0x48
 8003440:	9313      	str	r3, [sp, #76]	; 0x4c
 8003442:	e9dd 8912 	ldrd	r8, r9, [sp, #72]	; 0x48
 8003446:	9a14      	ldr	r2, [sp, #80]	; 0x50
 8003448:	f109 63d6 	add.w	r3, r9, #112197632	; 0x6b00000
 800344c:	eba3 0902 	sub.w	r9, r3, r2
 8003450:	ed9d 0b0a 	vldr	d0, [sp, #40]	; 0x28
 8003454:	f001 fd44 	bl	8004ee0 <__ulp>
 8003458:	4640      	mov	r0, r8
 800345a:	ec53 2b10 	vmov	r2, r3, d0
 800345e:	4649      	mov	r1, r9
 8003460:	f7fd f8fe 	bl	8000660 <__aeabi_dmul>
 8003464:	e9dd 230a 	ldrd	r2, r3, [sp, #40]	; 0x28
 8003468:	f7fc ff48 	bl	80002fc <__adddf3>
 800346c:	4682      	mov	sl, r0
 800346e:	468b      	mov	fp, r1
 8003470:	e777      	b.n	8003362 <_strtod_l+0xa82>
 8003472:	e9cd 6712 	strd	r6, r7, [sp, #72]	; 0x48
 8003476:	e7e4      	b.n	8003442 <_strtod_l+0xb62>
 8003478:	a30d      	add	r3, pc, #52	; (adr r3, 80034b0 <_strtod_l+0xbd0>)
 800347a:	e9d3 2300 	ldrd	r2, r3, [r3]
 800347e:	f7fd fb61 	bl	8000b44 <__aeabi_dcmplt>
 8003482:	e7a1      	b.n	80033c8 <_strtod_l+0xae8>
 8003484:	2300      	movs	r3, #0
 8003486:	9309      	str	r3, [sp, #36]	; 0x24
 8003488:	9a15      	ldr	r2, [sp, #84]	; 0x54
 800348a:	9b19      	ldr	r3, [sp, #100]	; 0x64
 800348c:	6013      	str	r3, [r2, #0]
 800348e:	f7ff ba6b 	b.w	8002968 <_strtod_l+0x88>
 8003492:	2b65      	cmp	r3, #101	; 0x65
 8003494:	f04f 0200 	mov.w	r2, #0
 8003498:	f43f abb6 	beq.w	8002c08 <_strtod_l+0x328>
 800349c:	4615      	mov	r5, r2
 800349e:	2101      	movs	r1, #1
 80034a0:	f7ff badc 	b.w	8002a5c <_strtod_l+0x17c>
 80034a4:	f3af 8000 	nop.w
 80034a8:	ffc00000 	.word	0xffc00000
 80034ac:	41dfffff 	.word	0x41dfffff
 80034b0:	94a03595 	.word	0x94a03595
 80034b4:	3fcfffff 	.word	0x3fcfffff

080034b8 <_strtod_r>:
 80034b8:	4b05      	ldr	r3, [pc, #20]	; (80034d0 <_strtod_r+0x18>)
 80034ba:	681b      	ldr	r3, [r3, #0]
 80034bc:	b410      	push	{r4}
 80034be:	6a1b      	ldr	r3, [r3, #32]
 80034c0:	4c04      	ldr	r4, [pc, #16]	; (80034d4 <_strtod_r+0x1c>)
 80034c2:	2b00      	cmp	r3, #0
 80034c4:	bf08      	it	eq
 80034c6:	4623      	moveq	r3, r4
 80034c8:	f85d 4b04 	ldr.w	r4, [sp], #4
 80034cc:	f7ff ba08 	b.w	80028e0 <_strtod_l>
 80034d0:	20000060 	.word	0x20000060
 80034d4:	200000c4 	.word	0x200000c4

080034d8 <_strtol_l.isra.0>:
 80034d8:	e92d 4ff8 	stmdb	sp!, {r3, r4, r5, r6, r7, r8, r9, sl, fp, lr}
 80034dc:	4680      	mov	r8, r0
 80034de:	4689      	mov	r9, r1
 80034e0:	4692      	mov	sl, r2
 80034e2:	461f      	mov	r7, r3
 80034e4:	468b      	mov	fp, r1
 80034e6:	465d      	mov	r5, fp
 80034e8:	980a      	ldr	r0, [sp, #40]	; 0x28
 80034ea:	f815 4b01 	ldrb.w	r4, [r5], #1
 80034ee:	f001 f9fe 	bl	80048ee <__locale_ctype_ptr_l>
 80034f2:	4420      	add	r0, r4
 80034f4:	7846      	ldrb	r6, [r0, #1]
 80034f6:	f016 0608 	ands.w	r6, r6, #8
 80034fa:	d10b      	bne.n	8003514 <_strtol_l.isra.0+0x3c>
 80034fc:	2c2d      	cmp	r4, #45	; 0x2d
 80034fe:	d10b      	bne.n	8003518 <_strtol_l.isra.0+0x40>
 8003500:	782c      	ldrb	r4, [r5, #0]
 8003502:	2601      	movs	r6, #1
 8003504:	f10b 0502 	add.w	r5, fp, #2
 8003508:	b167      	cbz	r7, 8003524 <_strtol_l.isra.0+0x4c>
 800350a:	2f10      	cmp	r7, #16
 800350c:	d114      	bne.n	8003538 <_strtol_l.isra.0+0x60>
 800350e:	2c30      	cmp	r4, #48	; 0x30
 8003510:	d00a      	beq.n	8003528 <_strtol_l.isra.0+0x50>
 8003512:	e011      	b.n	8003538 <_strtol_l.isra.0+0x60>
 8003514:	46ab      	mov	fp, r5
 8003516:	e7e6      	b.n	80034e6 <_strtol_l.isra.0+0xe>
 8003518:	2c2b      	cmp	r4, #43	; 0x2b
 800351a:	bf04      	itt	eq
 800351c:	782c      	ldrbeq	r4, [r5, #0]
 800351e:	f10b 0502 	addeq.w	r5, fp, #2
 8003522:	e7f1      	b.n	8003508 <_strtol_l.isra.0+0x30>
 8003524:	2c30      	cmp	r4, #48	; 0x30
 8003526:	d127      	bne.n	8003578 <_strtol_l.isra.0+0xa0>
 8003528:	782b      	ldrb	r3, [r5, #0]
 800352a:	f003 03df 	and.w	r3, r3, #223	; 0xdf
 800352e:	2b58      	cmp	r3, #88	; 0x58
 8003530:	d14b      	bne.n	80035ca <_strtol_l.isra.0+0xf2>
 8003532:	786c      	ldrb	r4, [r5, #1]
 8003534:	2710      	movs	r7, #16
 8003536:	3502      	adds	r5, #2
 8003538:	2e00      	cmp	r6, #0
 800353a:	bf0c      	ite	eq
 800353c:	f06f 4100 	mvneq.w	r1, #2147483648	; 0x80000000
 8003540:	f04f 4100 	movne.w	r1, #2147483648	; 0x80000000
 8003544:	2200      	movs	r2, #0
 8003546:	fbb1 fef7 	udiv	lr, r1, r7
 800354a:	4610      	mov	r0, r2
 800354c:	fb07 1c1e 	mls	ip, r7, lr, r1
 8003550:	f1a4 0330 	sub.w	r3, r4, #48	; 0x30
 8003554:	2b09      	cmp	r3, #9
 8003556:	d811      	bhi.n	800357c <_strtol_l.isra.0+0xa4>
 8003558:	461c      	mov	r4, r3
 800355a:	42a7      	cmp	r7, r4
 800355c:	dd1d      	ble.n	800359a <_strtol_l.isra.0+0xc2>
 800355e:	1c53      	adds	r3, r2, #1
 8003560:	d007      	beq.n	8003572 <_strtol_l.isra.0+0x9a>
 8003562:	4586      	cmp	lr, r0
 8003564:	d316      	bcc.n	8003594 <_strtol_l.isra.0+0xbc>
 8003566:	d101      	bne.n	800356c <_strtol_l.isra.0+0x94>
 8003568:	45a4      	cmp	ip, r4
 800356a:	db13      	blt.n	8003594 <_strtol_l.isra.0+0xbc>
 800356c:	fb00 4007 	mla	r0, r0, r7, r4
 8003570:	2201      	movs	r2, #1
 8003572:	f815 4b01 	ldrb.w	r4, [r5], #1
 8003576:	e7eb      	b.n	8003550 <_strtol_l.isra.0+0x78>
 8003578:	270a      	movs	r7, #10
 800357a:	e7dd      	b.n	8003538 <_strtol_l.isra.0+0x60>
 800357c:	f1a4 0341 	sub.w	r3, r4, #65	; 0x41
 8003580:	2b19      	cmp	r3, #25
 8003582:	d801      	bhi.n	8003588 <_strtol_l.isra.0+0xb0>
 8003584:	3c37      	subs	r4, #55	; 0x37
 8003586:	e7e8      	b.n	800355a <_strtol_l.isra.0+0x82>
 8003588:	f1a4 0361 	sub.w	r3, r4, #97	; 0x61
 800358c:	2b19      	cmp	r3, #25
 800358e:	d804      	bhi.n	800359a <_strtol_l.isra.0+0xc2>
 8003590:	3c57      	subs	r4, #87	; 0x57
 8003592:	e7e2      	b.n	800355a <_strtol_l.isra.0+0x82>
 8003594:	f04f 32ff 	mov.w	r2, #4294967295
 8003598:	e7eb      	b.n	8003572 <_strtol_l.isra.0+0x9a>
 800359a:	1c53      	adds	r3, r2, #1
 800359c:	d108      	bne.n	80035b0 <_strtol_l.isra.0+0xd8>
 800359e:	2322      	movs	r3, #34	; 0x22
 80035a0:	f8c8 3000 	str.w	r3, [r8]
 80035a4:	4608      	mov	r0, r1
 80035a6:	f1ba 0f00 	cmp.w	sl, #0
 80035aa:	d107      	bne.n	80035bc <_strtol_l.isra.0+0xe4>
 80035ac:	e8bd 8ff8 	ldmia.w	sp!, {r3, r4, r5, r6, r7, r8, r9, sl, fp, pc}
 80035b0:	b106      	cbz	r6, 80035b4 <_strtol_l.isra.0+0xdc>
 80035b2:	4240      	negs	r0, r0
 80035b4:	f1ba 0f00 	cmp.w	sl, #0
 80035b8:	d00c      	beq.n	80035d4 <_strtol_l.isra.0+0xfc>
 80035ba:	b122      	cbz	r2, 80035c6 <_strtol_l.isra.0+0xee>
 80035bc:	3d01      	subs	r5, #1
 80035be:	f8ca 5000 	str.w	r5, [sl]
 80035c2:	e8bd 8ff8 	ldmia.w	sp!, {r3, r4, r5, r6, r7, r8, r9, sl, fp, pc}
 80035c6:	464d      	mov	r5, r9
 80035c8:	e7f9      	b.n	80035be <_strtol_l.isra.0+0xe6>
 80035ca:	2430      	movs	r4, #48	; 0x30
 80035cc:	2f00      	cmp	r7, #0
 80035ce:	d1b3      	bne.n	8003538 <_strtol_l.isra.0+0x60>
 80035d0:	2708      	movs	r7, #8
 80035d2:	e7b1      	b.n	8003538 <_strtol_l.isra.0+0x60>
 80035d4:	e8bd 8ff8 	ldmia.w	sp!, {r3, r4, r5, r6, r7, r8, r9, sl, fp, pc}

080035d8 <_strtol_r>:
 80035d8:	b537      	push	{r0, r1, r2, r4, r5, lr}
 80035da:	4c06      	ldr	r4, [pc, #24]	; (80035f4 <_strtol_r+0x1c>)
 80035dc:	4d06      	ldr	r5, [pc, #24]	; (80035f8 <_strtol_r+0x20>)
 80035de:	6824      	ldr	r4, [r4, #0]
 80035e0:	6a24      	ldr	r4, [r4, #32]
 80035e2:	2c00      	cmp	r4, #0
 80035e4:	bf08      	it	eq
 80035e6:	462c      	moveq	r4, r5
 80035e8:	9400      	str	r4, [sp, #0]
 80035ea:	f7ff ff75 	bl	80034d8 <_strtol_l.isra.0>
 80035ee:	b003      	add	sp, #12
 80035f0:	bd30      	pop	{r4, r5, pc}
 80035f2:	bf00      	nop
 80035f4:	20000060 	.word	0x20000060
 80035f8:	200000c4 	.word	0x200000c4

080035fc <quorem>:
 80035fc:	e92d 4ff7 	stmdb	sp!, {r0, r1, r2, r4, r5, r6, r7, r8, r9, sl, fp, lr}
 8003600:	6903      	ldr	r3, [r0, #16]
 8003602:	690c      	ldr	r4, [r1, #16]
 8003604:	429c      	cmp	r4, r3
 8003606:	4680      	mov	r8, r0
 8003608:	f300 8082 	bgt.w	8003710 <quorem+0x114>
 800360c:	3c01      	subs	r4, #1
 800360e:	f101 0714 	add.w	r7, r1, #20
 8003612:	ea4f 0e84 	mov.w	lr, r4, lsl #2
 8003616:	f100 0614 	add.w	r6, r0, #20
 800361a:	f857 5024 	ldr.w	r5, [r7, r4, lsl #2]
 800361e:	f856 0024 	ldr.w	r0, [r6, r4, lsl #2]
 8003622:	eb06 030e 	add.w	r3, r6, lr
 8003626:	3501      	adds	r5, #1
 8003628:	eb07 090e 	add.w	r9, r7, lr
 800362c:	9301      	str	r3, [sp, #4]
 800362e:	fbb0 f5f5 	udiv	r5, r0, r5
 8003632:	b395      	cbz	r5, 800369a <quorem+0x9e>
 8003634:	f04f 0a00 	mov.w	sl, #0
 8003638:	4638      	mov	r0, r7
 800363a:	46b4      	mov	ip, r6
 800363c:	46d3      	mov	fp, sl
 800363e:	f850 2b04 	ldr.w	r2, [r0], #4
 8003642:	b293      	uxth	r3, r2
 8003644:	fb05 a303 	mla	r3, r5, r3, sl
 8003648:	ea4f 4a13 	mov.w	sl, r3, lsr #16
 800364c:	b29b      	uxth	r3, r3
 800364e:	ebab 0303 	sub.w	r3, fp, r3
 8003652:	0c12      	lsrs	r2, r2, #16
 8003654:	f8bc b000 	ldrh.w	fp, [ip]
 8003658:	fb05 a202 	mla	r2, r5, r2, sl
 800365c:	fa13 f38b 	uxtah	r3, r3, fp
 8003660:	ea4f 4a12 	mov.w	sl, r2, lsr #16
 8003664:	fa1f fb82 	uxth.w	fp, r2
 8003668:	f8dc 2000 	ldr.w	r2, [ip]
 800366c:	ebcb 4212 	rsb	r2, fp, r2, lsr #16
 8003670:	eb02 4223 	add.w	r2, r2, r3, asr #16
 8003674:	b29b      	uxth	r3, r3
 8003676:	ea43 4302 	orr.w	r3, r3, r2, lsl #16
 800367a:	4581      	cmp	r9, r0
 800367c:	ea4f 4b22 	mov.w	fp, r2, asr #16
 8003680:	f84c 3b04 	str.w	r3, [ip], #4
 8003684:	d2db      	bcs.n	800363e <quorem+0x42>
 8003686:	f856 300e 	ldr.w	r3, [r6, lr]
 800368a:	b933      	cbnz	r3, 800369a <quorem+0x9e>
 800368c:	9b01      	ldr	r3, [sp, #4]
 800368e:	3b04      	subs	r3, #4
 8003690:	429e      	cmp	r6, r3
 8003692:	461a      	mov	r2, r3
 8003694:	d330      	bcc.n	80036f8 <quorem+0xfc>
 8003696:	f8c8 4010 	str.w	r4, [r8, #16]
 800369a:	4640      	mov	r0, r8
 800369c:	f001 fba7 	bl	8004dee <__mcmp>
 80036a0:	2800      	cmp	r0, #0
 80036a2:	db25      	blt.n	80036f0 <quorem+0xf4>
 80036a4:	3501      	adds	r5, #1
 80036a6:	4630      	mov	r0, r6
 80036a8:	f04f 0e00 	mov.w	lr, #0
 80036ac:	f857 2b04 	ldr.w	r2, [r7], #4
 80036b0:	f8d0 c000 	ldr.w	ip, [r0]
 80036b4:	b293      	uxth	r3, r2
 80036b6:	ebae 0303 	sub.w	r3, lr, r3
 80036ba:	0c12      	lsrs	r2, r2, #16
 80036bc:	fa13 f38c 	uxtah	r3, r3, ip
 80036c0:	ebc2 421c 	rsb	r2, r2, ip, lsr #16
 80036c4:	eb02 4223 	add.w	r2, r2, r3, asr #16
 80036c8:	b29b      	uxth	r3, r3
 80036ca:	ea43 4302 	orr.w	r3, r3, r2, lsl #16
 80036ce:	45b9      	cmp	r9, r7
 80036d0:	ea4f 4e22 	mov.w	lr, r2, asr #16
 80036d4:	f840 3b04 	str.w	r3, [r0], #4
 80036d8:	d2e8      	bcs.n	80036ac <quorem+0xb0>
 80036da:	f856 2024 	ldr.w	r2, [r6, r4, lsl #2]
 80036de:	eb06 0384 	add.w	r3, r6, r4, lsl #2
 80036e2:	b92a      	cbnz	r2, 80036f0 <quorem+0xf4>
 80036e4:	3b04      	subs	r3, #4
 80036e6:	429e      	cmp	r6, r3
 80036e8:	461a      	mov	r2, r3
 80036ea:	d30b      	bcc.n	8003704 <quorem+0x108>
 80036ec:	f8c8 4010 	str.w	r4, [r8, #16]
 80036f0:	4628      	mov	r0, r5
 80036f2:	b003      	add	sp, #12
 80036f4:	e8bd 8ff0 	ldmia.w	sp!, {r4, r5, r6, r7, r8, r9, sl, fp, pc}
 80036f8:	6812      	ldr	r2, [r2, #0]
 80036fa:	3b04      	subs	r3, #4
 80036fc:	2a00      	cmp	r2, #0
 80036fe:	d1ca      	bne.n	8003696 <quorem+0x9a>
 8003700:	3c01      	subs	r4, #1
 8003702:	e7c5      	b.n	8003690 <quorem+0x94>
 8003704:	6812      	ldr	r2, [r2, #0]
 8003706:	3b04      	subs	r3, #4
 8003708:	2a00      	cmp	r2, #0
 800370a:	d1ef      	bne.n	80036ec <quorem+0xf0>
 800370c:	3c01      	subs	r4, #1
 800370e:	e7ea      	b.n	80036e6 <quorem+0xea>
 8003710:	2000      	movs	r0, #0
 8003712:	e7ee      	b.n	80036f2 <quorem+0xf6>
 8003714:	0000      	movs	r0, r0
	...

08003718 <_dtoa_r>:
 8003718:	e92d 4ff0 	stmdb	sp!, {r4, r5, r6, r7, r8, r9, sl, fp, lr}
 800371c:	ec57 6b10 	vmov	r6, r7, d0
 8003720:	b097      	sub	sp, #92	; 0x5c
 8003722:	e9cd 6700 	strd	r6, r7, [sp]
 8003726:	6a46      	ldr	r6, [r0, #36]	; 0x24
 8003728:	9107      	str	r1, [sp, #28]
 800372a:	4604      	mov	r4, r0
 800372c:	920a      	str	r2, [sp, #40]	; 0x28
 800372e:	930f      	str	r3, [sp, #60]	; 0x3c
 8003730:	9d20      	ldr	r5, [sp, #128]	; 0x80
 8003732:	b93e      	cbnz	r6, 8003744 <_dtoa_r+0x2c>
 8003734:	2010      	movs	r0, #16
 8003736:	f001 f8ed 	bl	8004914 <malloc>
 800373a:	6260      	str	r0, [r4, #36]	; 0x24
 800373c:	6046      	str	r6, [r0, #4]
 800373e:	6086      	str	r6, [r0, #8]
 8003740:	6006      	str	r6, [r0, #0]
 8003742:	60c6      	str	r6, [r0, #12]
 8003744:	6a63      	ldr	r3, [r4, #36]	; 0x24
 8003746:	6819      	ldr	r1, [r3, #0]
 8003748:	b151      	cbz	r1, 8003760 <_dtoa_r+0x48>
 800374a:	685a      	ldr	r2, [r3, #4]
 800374c:	604a      	str	r2, [r1, #4]
 800374e:	2301      	movs	r3, #1
 8003750:	4093      	lsls	r3, r2
 8003752:	608b      	str	r3, [r1, #8]
 8003754:	4620      	mov	r0, r4
 8003756:	f001 f936 	bl	80049c6 <_Bfree>
 800375a:	6a63      	ldr	r3, [r4, #36]	; 0x24
 800375c:	2200      	movs	r2, #0
 800375e:	601a      	str	r2, [r3, #0]
 8003760:	9b01      	ldr	r3, [sp, #4]
 8003762:	2b00      	cmp	r3, #0
 8003764:	bfbf      	itttt	lt
 8003766:	2301      	movlt	r3, #1
 8003768:	602b      	strlt	r3, [r5, #0]
 800376a:	9b01      	ldrlt	r3, [sp, #4]
 800376c:	f023 4300 	biclt.w	r3, r3, #2147483648	; 0x80000000
 8003770:	bfb2      	itee	lt
 8003772:	9301      	strlt	r3, [sp, #4]
 8003774:	2300      	movge	r3, #0
 8003776:	602b      	strge	r3, [r5, #0]
 8003778:	f8dd 8004 	ldr.w	r8, [sp, #4]
 800377c:	4ba8      	ldr	r3, [pc, #672]	; (8003a20 <_dtoa_r+0x308>)
 800377e:	ea33 0308 	bics.w	r3, r3, r8
 8003782:	d11b      	bne.n	80037bc <_dtoa_r+0xa4>
 8003784:	9a0f      	ldr	r2, [sp, #60]	; 0x3c
 8003786:	f242 730f 	movw	r3, #9999	; 0x270f
 800378a:	6013      	str	r3, [r2, #0]
 800378c:	9b00      	ldr	r3, [sp, #0]
 800378e:	b923      	cbnz	r3, 800379a <_dtoa_r+0x82>
 8003790:	f3c8 0013 	ubfx	r0, r8, #0, #20
 8003794:	2800      	cmp	r0, #0
 8003796:	f000 8578 	beq.w	800428a <_dtoa_r+0xb72>
 800379a:	9b21      	ldr	r3, [sp, #132]	; 0x84
 800379c:	b953      	cbnz	r3, 80037b4 <_dtoa_r+0x9c>
 800379e:	4ba1      	ldr	r3, [pc, #644]	; (8003a24 <_dtoa_r+0x30c>)
 80037a0:	e021      	b.n	80037e6 <_dtoa_r+0xce>
 80037a2:	4ba1      	ldr	r3, [pc, #644]	; (8003a28 <_dtoa_r+0x310>)
 80037a4:	9302      	str	r3, [sp, #8]
 80037a6:	3308      	adds	r3, #8
 80037a8:	9a21      	ldr	r2, [sp, #132]	; 0x84
 80037aa:	6013      	str	r3, [r2, #0]
 80037ac:	9802      	ldr	r0, [sp, #8]
 80037ae:	b017      	add	sp, #92	; 0x5c
 80037b0:	e8bd 8ff0 	ldmia.w	sp!, {r4, r5, r6, r7, r8, r9, sl, fp, pc}
 80037b4:	4b9b      	ldr	r3, [pc, #620]	; (8003a24 <_dtoa_r+0x30c>)
 80037b6:	9302      	str	r3, [sp, #8]
 80037b8:	3303      	adds	r3, #3
 80037ba:	e7f5      	b.n	80037a8 <_dtoa_r+0x90>
 80037bc:	e9dd 6700 	ldrd	r6, r7, [sp]
 80037c0:	2200      	movs	r2, #0
 80037c2:	2300      	movs	r3, #0
 80037c4:	4630      	mov	r0, r6
 80037c6:	4639      	mov	r1, r7
 80037c8:	f7fd f9b2 	bl	8000b30 <__aeabi_dcmpeq>
 80037cc:	4681      	mov	r9, r0
 80037ce:	b160      	cbz	r0, 80037ea <_dtoa_r+0xd2>
 80037d0:	9a0f      	ldr	r2, [sp, #60]	; 0x3c
 80037d2:	2301      	movs	r3, #1
 80037d4:	6013      	str	r3, [r2, #0]
 80037d6:	9b21      	ldr	r3, [sp, #132]	; 0x84
 80037d8:	2b00      	cmp	r3, #0
 80037da:	f000 8553 	beq.w	8004284 <_dtoa_r+0xb6c>
 80037de:	4b93      	ldr	r3, [pc, #588]	; (8003a2c <_dtoa_r+0x314>)
 80037e0:	9a21      	ldr	r2, [sp, #132]	; 0x84
 80037e2:	6013      	str	r3, [r2, #0]
 80037e4:	3b01      	subs	r3, #1
 80037e6:	9302      	str	r3, [sp, #8]
 80037e8:	e7e0      	b.n	80037ac <_dtoa_r+0x94>
 80037ea:	aa14      	add	r2, sp, #80	; 0x50
 80037ec:	a915      	add	r1, sp, #84	; 0x54
 80037ee:	ec47 6b10 	vmov	d0, r6, r7
 80037f2:	4620      	mov	r0, r4
 80037f4:	f001 fbea 	bl	8004fcc <__d2b>
 80037f8:	f3c8 550a 	ubfx	r5, r8, #20, #11
 80037fc:	4682      	mov	sl, r0
 80037fe:	2d00      	cmp	r5, #0
 8003800:	d07e      	beq.n	8003900 <_dtoa_r+0x1e8>
 8003802:	f3c7 0313 	ubfx	r3, r7, #0, #20
 8003806:	f043 517f 	orr.w	r1, r3, #1069547520	; 0x3fc00000
 800380a:	4630      	mov	r0, r6
 800380c:	f441 1140 	orr.w	r1, r1, #3145728	; 0x300000
 8003810:	f2a5 35ff 	subw	r5, r5, #1023	; 0x3ff
 8003814:	f8cd 9048 	str.w	r9, [sp, #72]	; 0x48
 8003818:	2200      	movs	r2, #0
 800381a:	4b85      	ldr	r3, [pc, #532]	; (8003a30 <_dtoa_r+0x318>)
 800381c:	f7fc fd6c 	bl	80002f8 <__aeabi_dsub>
 8003820:	a379      	add	r3, pc, #484	; (adr r3, 8003a08 <_dtoa_r+0x2f0>)
 8003822:	e9d3 2300 	ldrd	r2, r3, [r3]
 8003826:	f7fc ff1b 	bl	8000660 <__aeabi_dmul>
 800382a:	a379      	add	r3, pc, #484	; (adr r3, 8003a10 <_dtoa_r+0x2f8>)
 800382c:	e9d3 2300 	ldrd	r2, r3, [r3]
 8003830:	f7fc fd64 	bl	80002fc <__adddf3>
 8003834:	4606      	mov	r6, r0
 8003836:	4628      	mov	r0, r5
 8003838:	460f      	mov	r7, r1
 800383a:	f7fc feab 	bl	8000594 <__aeabi_i2d>
 800383e:	a376      	add	r3, pc, #472	; (adr r3, 8003a18 <_dtoa_r+0x300>)
 8003840:	e9d3 2300 	ldrd	r2, r3, [r3]
 8003844:	f7fc ff0c 	bl	8000660 <__aeabi_dmul>
 8003848:	4602      	mov	r2, r0
 800384a:	460b      	mov	r3, r1
 800384c:	4630      	mov	r0, r6
 800384e:	4639      	mov	r1, r7
 8003850:	f7fc fd54 	bl	80002fc <__adddf3>
 8003854:	4606      	mov	r6, r0
 8003856:	460f      	mov	r7, r1
 8003858:	f7fd f9b2 	bl	8000bc0 <__aeabi_d2iz>
 800385c:	2200      	movs	r2, #0
 800385e:	4683      	mov	fp, r0
 8003860:	2300      	movs	r3, #0
 8003862:	4630      	mov	r0, r6
 8003864:	4639      	mov	r1, r7
 8003866:	f7fd f96d 	bl	8000b44 <__aeabi_dcmplt>
 800386a:	b158      	cbz	r0, 8003884 <_dtoa_r+0x16c>
 800386c:	4658      	mov	r0, fp
 800386e:	f7fc fe91 	bl	8000594 <__aeabi_i2d>
 8003872:	4602      	mov	r2, r0
 8003874:	460b      	mov	r3, r1
 8003876:	4630      	mov	r0, r6
 8003878:	4639      	mov	r1, r7
 800387a:	f7fd f959 	bl	8000b30 <__aeabi_dcmpeq>
 800387e:	b908      	cbnz	r0, 8003884 <_dtoa_r+0x16c>
 8003880:	f10b 3bff 	add.w	fp, fp, #4294967295
 8003884:	f1bb 0f16 	cmp.w	fp, #22
 8003888:	d859      	bhi.n	800393e <_dtoa_r+0x226>
 800388a:	496a      	ldr	r1, [pc, #424]	; (8003a34 <_dtoa_r+0x31c>)
 800388c:	eb01 01cb 	add.w	r1, r1, fp, lsl #3
 8003890:	e9dd 2300 	ldrd	r2, r3, [sp]
 8003894:	e9d1 0100 	ldrd	r0, r1, [r1]
 8003898:	f7fd f972 	bl	8000b80 <__aeabi_dcmpgt>
 800389c:	2800      	cmp	r0, #0
 800389e:	d050      	beq.n	8003942 <_dtoa_r+0x22a>
 80038a0:	f10b 3bff 	add.w	fp, fp, #4294967295
 80038a4:	2300      	movs	r3, #0
 80038a6:	930e      	str	r3, [sp, #56]	; 0x38
 80038a8:	9b14      	ldr	r3, [sp, #80]	; 0x50
 80038aa:	1b5d      	subs	r5, r3, r5
 80038ac:	1e6b      	subs	r3, r5, #1
 80038ae:	9306      	str	r3, [sp, #24]
 80038b0:	bf45      	ittet	mi
 80038b2:	f1c5 0301 	rsbmi	r3, r5, #1
 80038b6:	9305      	strmi	r3, [sp, #20]
 80038b8:	2300      	movpl	r3, #0
 80038ba:	2300      	movmi	r3, #0
 80038bc:	bf4c      	ite	mi
 80038be:	9306      	strmi	r3, [sp, #24]
 80038c0:	9305      	strpl	r3, [sp, #20]
 80038c2:	f1bb 0f00 	cmp.w	fp, #0
 80038c6:	db3e      	blt.n	8003946 <_dtoa_r+0x22e>
 80038c8:	9b06      	ldr	r3, [sp, #24]
 80038ca:	f8cd b02c 	str.w	fp, [sp, #44]	; 0x2c
 80038ce:	445b      	add	r3, fp
 80038d0:	9306      	str	r3, [sp, #24]
 80038d2:	2300      	movs	r3, #0
 80038d4:	9308      	str	r3, [sp, #32]
 80038d6:	9b07      	ldr	r3, [sp, #28]
 80038d8:	2b09      	cmp	r3, #9
 80038da:	f200 80af 	bhi.w	8003a3c <_dtoa_r+0x324>
 80038de:	2b05      	cmp	r3, #5
 80038e0:	bfc4      	itt	gt
 80038e2:	3b04      	subgt	r3, #4
 80038e4:	9307      	strgt	r3, [sp, #28]
 80038e6:	9b07      	ldr	r3, [sp, #28]
 80038e8:	f1a3 0302 	sub.w	r3, r3, #2
 80038ec:	bfcc      	ite	gt
 80038ee:	2600      	movgt	r6, #0
 80038f0:	2601      	movle	r6, #1
 80038f2:	2b03      	cmp	r3, #3
 80038f4:	f200 80ae 	bhi.w	8003a54 <_dtoa_r+0x33c>
 80038f8:	e8df f003 	tbb	[pc, r3]
 80038fc:	772f8482 	.word	0x772f8482
 8003900:	9b15      	ldr	r3, [sp, #84]	; 0x54
 8003902:	9d14      	ldr	r5, [sp, #80]	; 0x50
 8003904:	441d      	add	r5, r3
 8003906:	f205 4332 	addw	r3, r5, #1074	; 0x432
 800390a:	2b20      	cmp	r3, #32
 800390c:	dd11      	ble.n	8003932 <_dtoa_r+0x21a>
 800390e:	9a00      	ldr	r2, [sp, #0]
 8003910:	f205 4012 	addw	r0, r5, #1042	; 0x412
 8003914:	f1c3 0340 	rsb	r3, r3, #64	; 0x40
 8003918:	fa22 f000 	lsr.w	r0, r2, r0
 800391c:	fa08 f303 	lsl.w	r3, r8, r3
 8003920:	4318      	orrs	r0, r3
 8003922:	f7fc fe27 	bl	8000574 <__aeabi_ui2d>
 8003926:	2301      	movs	r3, #1
 8003928:	f1a1 71f8 	sub.w	r1, r1, #32505856	; 0x1f00000
 800392c:	3d01      	subs	r5, #1
 800392e:	9312      	str	r3, [sp, #72]	; 0x48
 8003930:	e772      	b.n	8003818 <_dtoa_r+0x100>
 8003932:	f1c3 0020 	rsb	r0, r3, #32
 8003936:	9b00      	ldr	r3, [sp, #0]
 8003938:	fa03 f000 	lsl.w	r0, r3, r0
 800393c:	e7f1      	b.n	8003922 <_dtoa_r+0x20a>
 800393e:	2301      	movs	r3, #1
 8003940:	e7b1      	b.n	80038a6 <_dtoa_r+0x18e>
 8003942:	900e      	str	r0, [sp, #56]	; 0x38
 8003944:	e7b0      	b.n	80038a8 <_dtoa_r+0x190>
 8003946:	9b05      	ldr	r3, [sp, #20]
 8003948:	eba3 030b 	sub.w	r3, r3, fp
 800394c:	9305      	str	r3, [sp, #20]
 800394e:	f1cb 0300 	rsb	r3, fp, #0
 8003952:	9308      	str	r3, [sp, #32]
 8003954:	2300      	movs	r3, #0
 8003956:	930b      	str	r3, [sp, #44]	; 0x2c
 8003958:	e7bd      	b.n	80038d6 <_dtoa_r+0x1be>
 800395a:	2301      	movs	r3, #1
 800395c:	9309      	str	r3, [sp, #36]	; 0x24
 800395e:	9b0a      	ldr	r3, [sp, #40]	; 0x28
 8003960:	2b00      	cmp	r3, #0
 8003962:	dd7a      	ble.n	8003a5a <_dtoa_r+0x342>
 8003964:	9304      	str	r3, [sp, #16]
 8003966:	9303      	str	r3, [sp, #12]
 8003968:	6a65      	ldr	r5, [r4, #36]	; 0x24
 800396a:	2200      	movs	r2, #0
 800396c:	606a      	str	r2, [r5, #4]
 800396e:	2104      	movs	r1, #4
 8003970:	f101 0214 	add.w	r2, r1, #20
 8003974:	429a      	cmp	r2, r3
 8003976:	d975      	bls.n	8003a64 <_dtoa_r+0x34c>
 8003978:	6869      	ldr	r1, [r5, #4]
 800397a:	4620      	mov	r0, r4
 800397c:	f000 ffef 	bl	800495e <_Balloc>
 8003980:	6a63      	ldr	r3, [r4, #36]	; 0x24
 8003982:	6028      	str	r0, [r5, #0]
 8003984:	681b      	ldr	r3, [r3, #0]
 8003986:	9302      	str	r3, [sp, #8]
 8003988:	9b03      	ldr	r3, [sp, #12]
 800398a:	2b0e      	cmp	r3, #14
 800398c:	f200 80e5 	bhi.w	8003b5a <_dtoa_r+0x442>
 8003990:	2e00      	cmp	r6, #0
 8003992:	f000 80e2 	beq.w	8003b5a <_dtoa_r+0x442>
 8003996:	ed9d 7b00 	vldr	d7, [sp]
 800399a:	f1bb 0f00 	cmp.w	fp, #0
 800399e:	ed8d 7b0c 	vstr	d7, [sp, #48]	; 0x30
 80039a2:	dd74      	ble.n	8003a8e <_dtoa_r+0x376>
 80039a4:	4a23      	ldr	r2, [pc, #140]	; (8003a34 <_dtoa_r+0x31c>)
 80039a6:	f00b 030f 	and.w	r3, fp, #15
 80039aa:	ea4f 162b 	mov.w	r6, fp, asr #4
 80039ae:	eb02 03c3 	add.w	r3, r2, r3, lsl #3
 80039b2:	06f0      	lsls	r0, r6, #27
 80039b4:	e9d3 8900 	ldrd	r8, r9, [r3]
 80039b8:	d559      	bpl.n	8003a6e <_dtoa_r+0x356>
 80039ba:	4b1f      	ldr	r3, [pc, #124]	; (8003a38 <_dtoa_r+0x320>)
 80039bc:	ec51 0b17 	vmov	r0, r1, d7
 80039c0:	e9d3 2308 	ldrd	r2, r3, [r3, #32]
 80039c4:	f7fc ff76 	bl	80008b4 <__aeabi_ddiv>
 80039c8:	e9cd 0100 	strd	r0, r1, [sp]
 80039cc:	f006 060f 	and.w	r6, r6, #15
 80039d0:	2503      	movs	r5, #3
 80039d2:	4f19      	ldr	r7, [pc, #100]	; (8003a38 <_dtoa_r+0x320>)
 80039d4:	2e00      	cmp	r6, #0
 80039d6:	d14c      	bne.n	8003a72 <_dtoa_r+0x35a>
 80039d8:	4642      	mov	r2, r8
 80039da:	464b      	mov	r3, r9
 80039dc:	e9dd 0100 	ldrd	r0, r1, [sp]
 80039e0:	f7fc ff68 	bl	80008b4 <__aeabi_ddiv>
 80039e4:	e9cd 0100 	strd	r0, r1, [sp]
 80039e8:	e06a      	b.n	8003ac0 <_dtoa_r+0x3a8>
 80039ea:	2301      	movs	r3, #1
 80039ec:	9309      	str	r3, [sp, #36]	; 0x24
 80039ee:	9b0a      	ldr	r3, [sp, #40]	; 0x28
 80039f0:	445b      	add	r3, fp
 80039f2:	9304      	str	r3, [sp, #16]
 80039f4:	3301      	adds	r3, #1
 80039f6:	2b01      	cmp	r3, #1
 80039f8:	9303      	str	r3, [sp, #12]
 80039fa:	bfb8      	it	lt
 80039fc:	2301      	movlt	r3, #1
 80039fe:	e7b3      	b.n	8003968 <_dtoa_r+0x250>
 8003a00:	2300      	movs	r3, #0
 8003a02:	e7ab      	b.n	800395c <_dtoa_r+0x244>
 8003a04:	2300      	movs	r3, #0
 8003a06:	e7f1      	b.n	80039ec <_dtoa_r+0x2d4>
 8003a08:	636f4361 	.word	0x636f4361
 8003a0c:	3fd287a7 	.word	0x3fd287a7
 8003a10:	8b60c8b3 	.word	0x8b60c8b3
 8003a14:	3fc68a28 	.word	0x3fc68a28
 8003a18:	509f79fb 	.word	0x509f79fb
 8003a1c:	3fd34413 	.word	0x3fd34413
 8003a20:	7ff00000 	.word	0x7ff00000
 8003a24:	08005811 	.word	0x08005811
 8003a28:	08005808 	.word	0x08005808
 8003a2c:	0800578c 	.word	0x0800578c
 8003a30:	3ff80000 	.word	0x3ff80000
 8003a34:	080058b0 	.word	0x080058b0
 8003a38:	08005888 	.word	0x08005888
 8003a3c:	2601      	movs	r6, #1
 8003a3e:	2300      	movs	r3, #0
 8003a40:	9307      	str	r3, [sp, #28]
 8003a42:	9609      	str	r6, [sp, #36]	; 0x24
 8003a44:	f04f 33ff 	mov.w	r3, #4294967295
 8003a48:	9304      	str	r3, [sp, #16]
 8003a4a:	9303      	str	r3, [sp, #12]
 8003a4c:	2200      	movs	r2, #0
 8003a4e:	2312      	movs	r3, #18
 8003a50:	920a      	str	r2, [sp, #40]	; 0x28
 8003a52:	e789      	b.n	8003968 <_dtoa_r+0x250>
 8003a54:	2301      	movs	r3, #1
 8003a56:	9309      	str	r3, [sp, #36]	; 0x24
 8003a58:	e7f4      	b.n	8003a44 <_dtoa_r+0x32c>
 8003a5a:	2301      	movs	r3, #1
 8003a5c:	9304      	str	r3, [sp, #16]
 8003a5e:	9303      	str	r3, [sp, #12]
 8003a60:	461a      	mov	r2, r3
 8003a62:	e7f5      	b.n	8003a50 <_dtoa_r+0x338>
 8003a64:	686a      	ldr	r2, [r5, #4]
 8003a66:	3201      	adds	r2, #1
 8003a68:	606a      	str	r2, [r5, #4]
 8003a6a:	0049      	lsls	r1, r1, #1
 8003a6c:	e780      	b.n	8003970 <_dtoa_r+0x258>
 8003a6e:	2502      	movs	r5, #2
 8003a70:	e7af      	b.n	80039d2 <_dtoa_r+0x2ba>
 8003a72:	07f1      	lsls	r1, r6, #31
 8003a74:	d508      	bpl.n	8003a88 <_dtoa_r+0x370>
 8003a76:	4640      	mov	r0, r8
 8003a78:	4649      	mov	r1, r9
 8003a7a:	e9d7 2300 	ldrd	r2, r3, [r7]
 8003a7e:	f7fc fdef 	bl	8000660 <__aeabi_dmul>
 8003a82:	3501      	adds	r5, #1
 8003a84:	4680      	mov	r8, r0
 8003a86:	4689      	mov	r9, r1
 8003a88:	1076      	asrs	r6, r6, #1
 8003a8a:	3708      	adds	r7, #8
 8003a8c:	e7a2      	b.n	80039d4 <_dtoa_r+0x2bc>
 8003a8e:	f000 809d 	beq.w	8003bcc <_dtoa_r+0x4b4>
 8003a92:	f1cb 0600 	rsb	r6, fp, #0
 8003a96:	4b9f      	ldr	r3, [pc, #636]	; (8003d14 <_dtoa_r+0x5fc>)
 8003a98:	4f9f      	ldr	r7, [pc, #636]	; (8003d18 <_dtoa_r+0x600>)
 8003a9a:	f006 020f 	and.w	r2, r6, #15
 8003a9e:	eb03 03c2 	add.w	r3, r3, r2, lsl #3
 8003aa2:	e9d3 2300 	ldrd	r2, r3, [r3]
 8003aa6:	e9dd 010c 	ldrd	r0, r1, [sp, #48]	; 0x30
 8003aaa:	f7fc fdd9 	bl	8000660 <__aeabi_dmul>
 8003aae:	e9cd 0100 	strd	r0, r1, [sp]
 8003ab2:	1136      	asrs	r6, r6, #4
 8003ab4:	2300      	movs	r3, #0
 8003ab6:	2502      	movs	r5, #2
 8003ab8:	2e00      	cmp	r6, #0
 8003aba:	d17c      	bne.n	8003bb6 <_dtoa_r+0x49e>
 8003abc:	2b00      	cmp	r3, #0
 8003abe:	d191      	bne.n	80039e4 <_dtoa_r+0x2cc>
 8003ac0:	9b0e      	ldr	r3, [sp, #56]	; 0x38
 8003ac2:	2b00      	cmp	r3, #0
 8003ac4:	f000 8084 	beq.w	8003bd0 <_dtoa_r+0x4b8>
 8003ac8:	e9dd 8900 	ldrd	r8, r9, [sp]
 8003acc:	2200      	movs	r2, #0
 8003ace:	4b93      	ldr	r3, [pc, #588]	; (8003d1c <_dtoa_r+0x604>)
 8003ad0:	4640      	mov	r0, r8
 8003ad2:	4649      	mov	r1, r9
 8003ad4:	f7fd f836 	bl	8000b44 <__aeabi_dcmplt>
 8003ad8:	2800      	cmp	r0, #0
 8003ada:	d079      	beq.n	8003bd0 <_dtoa_r+0x4b8>
 8003adc:	9b03      	ldr	r3, [sp, #12]
 8003ade:	2b00      	cmp	r3, #0
 8003ae0:	d076      	beq.n	8003bd0 <_dtoa_r+0x4b8>
 8003ae2:	9b04      	ldr	r3, [sp, #16]
 8003ae4:	2b00      	cmp	r3, #0
 8003ae6:	dd34      	ble.n	8003b52 <_dtoa_r+0x43a>
 8003ae8:	2200      	movs	r2, #0
 8003aea:	4b8d      	ldr	r3, [pc, #564]	; (8003d20 <_dtoa_r+0x608>)
 8003aec:	4640      	mov	r0, r8
 8003aee:	4649      	mov	r1, r9
 8003af0:	f7fc fdb6 	bl	8000660 <__aeabi_dmul>
 8003af4:	e9cd 0100 	strd	r0, r1, [sp]
 8003af8:	9e04      	ldr	r6, [sp, #16]
 8003afa:	f10b 37ff 	add.w	r7, fp, #4294967295
 8003afe:	3501      	adds	r5, #1
 8003b00:	4628      	mov	r0, r5
 8003b02:	f7fc fd47 	bl	8000594 <__aeabi_i2d>
 8003b06:	e9dd 2300 	ldrd	r2, r3, [sp]
 8003b0a:	f7fc fda9 	bl	8000660 <__aeabi_dmul>
 8003b0e:	2200      	movs	r2, #0
 8003b10:	4b84      	ldr	r3, [pc, #528]	; (8003d24 <_dtoa_r+0x60c>)
 8003b12:	f7fc fbf3 	bl	80002fc <__adddf3>
 8003b16:	4680      	mov	r8, r0
 8003b18:	f1a1 7950 	sub.w	r9, r1, #54525952	; 0x3400000
 8003b1c:	2e00      	cmp	r6, #0
 8003b1e:	d15a      	bne.n	8003bd6 <_dtoa_r+0x4be>
 8003b20:	2200      	movs	r2, #0
 8003b22:	4b81      	ldr	r3, [pc, #516]	; (8003d28 <_dtoa_r+0x610>)
 8003b24:	e9dd 0100 	ldrd	r0, r1, [sp]
 8003b28:	f7fc fbe6 	bl	80002f8 <__aeabi_dsub>
 8003b2c:	4642      	mov	r2, r8
 8003b2e:	464b      	mov	r3, r9
 8003b30:	e9cd 0100 	strd	r0, r1, [sp]
 8003b34:	f7fd f824 	bl	8000b80 <__aeabi_dcmpgt>
 8003b38:	2800      	cmp	r0, #0
 8003b3a:	f040 829b 	bne.w	8004074 <_dtoa_r+0x95c>
 8003b3e:	4642      	mov	r2, r8
 8003b40:	f109 4300 	add.w	r3, r9, #2147483648	; 0x80000000
 8003b44:	e9dd 0100 	ldrd	r0, r1, [sp]
 8003b48:	f7fc fffc 	bl	8000b44 <__aeabi_dcmplt>
 8003b4c:	2800      	cmp	r0, #0
 8003b4e:	f040 828f 	bne.w	8004070 <_dtoa_r+0x958>
 8003b52:	e9dd 230c 	ldrd	r2, r3, [sp, #48]	; 0x30
 8003b56:	e9cd 2300 	strd	r2, r3, [sp]
 8003b5a:	9b15      	ldr	r3, [sp, #84]	; 0x54
 8003b5c:	2b00      	cmp	r3, #0
 8003b5e:	f2c0 8150 	blt.w	8003e02 <_dtoa_r+0x6ea>
 8003b62:	f1bb 0f0e 	cmp.w	fp, #14
 8003b66:	f300 814c 	bgt.w	8003e02 <_dtoa_r+0x6ea>
 8003b6a:	4b6a      	ldr	r3, [pc, #424]	; (8003d14 <_dtoa_r+0x5fc>)
 8003b6c:	eb03 03cb 	add.w	r3, r3, fp, lsl #3
 8003b70:	e9d3 8900 	ldrd	r8, r9, [r3]
 8003b74:	9b0a      	ldr	r3, [sp, #40]	; 0x28
 8003b76:	2b00      	cmp	r3, #0
 8003b78:	f280 80da 	bge.w	8003d30 <_dtoa_r+0x618>
 8003b7c:	9b03      	ldr	r3, [sp, #12]
 8003b7e:	2b00      	cmp	r3, #0
 8003b80:	f300 80d6 	bgt.w	8003d30 <_dtoa_r+0x618>
 8003b84:	f040 8273 	bne.w	800406e <_dtoa_r+0x956>
 8003b88:	2200      	movs	r2, #0
 8003b8a:	4b67      	ldr	r3, [pc, #412]	; (8003d28 <_dtoa_r+0x610>)
 8003b8c:	4640      	mov	r0, r8
 8003b8e:	4649      	mov	r1, r9
 8003b90:	f7fc fd66 	bl	8000660 <__aeabi_dmul>
 8003b94:	e9dd 2300 	ldrd	r2, r3, [sp]
 8003b98:	f7fc ffe8 	bl	8000b6c <__aeabi_dcmpge>
 8003b9c:	9e03      	ldr	r6, [sp, #12]
 8003b9e:	4637      	mov	r7, r6
 8003ba0:	2800      	cmp	r0, #0
 8003ba2:	f040 824a 	bne.w	800403a <_dtoa_r+0x922>
 8003ba6:	9b02      	ldr	r3, [sp, #8]
 8003ba8:	9a02      	ldr	r2, [sp, #8]
 8003baa:	1c5d      	adds	r5, r3, #1
 8003bac:	2331      	movs	r3, #49	; 0x31
 8003bae:	7013      	strb	r3, [r2, #0]
 8003bb0:	f10b 0b01 	add.w	fp, fp, #1
 8003bb4:	e245      	b.n	8004042 <_dtoa_r+0x92a>
 8003bb6:	07f2      	lsls	r2, r6, #31
 8003bb8:	d505      	bpl.n	8003bc6 <_dtoa_r+0x4ae>
 8003bba:	e9d7 2300 	ldrd	r2, r3, [r7]
 8003bbe:	f7fc fd4f 	bl	8000660 <__aeabi_dmul>
 8003bc2:	3501      	adds	r5, #1
 8003bc4:	2301      	movs	r3, #1
 8003bc6:	1076      	asrs	r6, r6, #1
 8003bc8:	3708      	adds	r7, #8
 8003bca:	e775      	b.n	8003ab8 <_dtoa_r+0x3a0>
 8003bcc:	2502      	movs	r5, #2
 8003bce:	e777      	b.n	8003ac0 <_dtoa_r+0x3a8>
 8003bd0:	465f      	mov	r7, fp
 8003bd2:	9e03      	ldr	r6, [sp, #12]
 8003bd4:	e794      	b.n	8003b00 <_dtoa_r+0x3e8>
 8003bd6:	9a02      	ldr	r2, [sp, #8]
 8003bd8:	4b4e      	ldr	r3, [pc, #312]	; (8003d14 <_dtoa_r+0x5fc>)
 8003bda:	4432      	add	r2, r6
 8003bdc:	9213      	str	r2, [sp, #76]	; 0x4c
 8003bde:	9a09      	ldr	r2, [sp, #36]	; 0x24
 8003be0:	1e71      	subs	r1, r6, #1
 8003be2:	2a00      	cmp	r2, #0
 8003be4:	d048      	beq.n	8003c78 <_dtoa_r+0x560>
 8003be6:	eb03 03c1 	add.w	r3, r3, r1, lsl #3
 8003bea:	e9d3 2300 	ldrd	r2, r3, [r3]
 8003bee:	2000      	movs	r0, #0
 8003bf0:	494e      	ldr	r1, [pc, #312]	; (8003d2c <_dtoa_r+0x614>)
 8003bf2:	f7fc fe5f 	bl	80008b4 <__aeabi_ddiv>
 8003bf6:	4642      	mov	r2, r8
 8003bf8:	464b      	mov	r3, r9
 8003bfa:	f7fc fb7d 	bl	80002f8 <__aeabi_dsub>
 8003bfe:	9d02      	ldr	r5, [sp, #8]
 8003c00:	4680      	mov	r8, r0
 8003c02:	4689      	mov	r9, r1
 8003c04:	e9dd 0100 	ldrd	r0, r1, [sp]
 8003c08:	f7fc ffda 	bl	8000bc0 <__aeabi_d2iz>
 8003c0c:	4606      	mov	r6, r0
 8003c0e:	f7fc fcc1 	bl	8000594 <__aeabi_i2d>
 8003c12:	4602      	mov	r2, r0
 8003c14:	460b      	mov	r3, r1
 8003c16:	e9dd 0100 	ldrd	r0, r1, [sp]
 8003c1a:	f7fc fb6d 	bl	80002f8 <__aeabi_dsub>
 8003c1e:	3630      	adds	r6, #48	; 0x30
 8003c20:	f805 6b01 	strb.w	r6, [r5], #1
 8003c24:	4642      	mov	r2, r8
 8003c26:	464b      	mov	r3, r9
 8003c28:	e9cd 0100 	strd	r0, r1, [sp]
 8003c2c:	f7fc ff8a 	bl	8000b44 <__aeabi_dcmplt>
 8003c30:	2800      	cmp	r0, #0
 8003c32:	d165      	bne.n	8003d00 <_dtoa_r+0x5e8>
 8003c34:	e9dd 2300 	ldrd	r2, r3, [sp]
 8003c38:	2000      	movs	r0, #0
 8003c3a:	4938      	ldr	r1, [pc, #224]	; (8003d1c <_dtoa_r+0x604>)
 8003c3c:	f7fc fb5c 	bl	80002f8 <__aeabi_dsub>
 8003c40:	4642      	mov	r2, r8
 8003c42:	464b      	mov	r3, r9
 8003c44:	f7fc ff7e 	bl	8000b44 <__aeabi_dcmplt>
 8003c48:	2800      	cmp	r0, #0
 8003c4a:	f040 80ba 	bne.w	8003dc2 <_dtoa_r+0x6aa>
 8003c4e:	9b13      	ldr	r3, [sp, #76]	; 0x4c
 8003c50:	429d      	cmp	r5, r3
 8003c52:	f43f af7e 	beq.w	8003b52 <_dtoa_r+0x43a>
 8003c56:	2200      	movs	r2, #0
 8003c58:	4b31      	ldr	r3, [pc, #196]	; (8003d20 <_dtoa_r+0x608>)
 8003c5a:	4640      	mov	r0, r8
 8003c5c:	4649      	mov	r1, r9
 8003c5e:	f7fc fcff 	bl	8000660 <__aeabi_dmul>
 8003c62:	2200      	movs	r2, #0
 8003c64:	4680      	mov	r8, r0
 8003c66:	4689      	mov	r9, r1
 8003c68:	4b2d      	ldr	r3, [pc, #180]	; (8003d20 <_dtoa_r+0x608>)
 8003c6a:	e9dd 0100 	ldrd	r0, r1, [sp]
 8003c6e:	f7fc fcf7 	bl	8000660 <__aeabi_dmul>
 8003c72:	e9cd 0100 	strd	r0, r1, [sp]
 8003c76:	e7c5      	b.n	8003c04 <_dtoa_r+0x4ec>
 8003c78:	eb03 01c1 	add.w	r1, r3, r1, lsl #3
 8003c7c:	4642      	mov	r2, r8
 8003c7e:	464b      	mov	r3, r9
 8003c80:	e9d1 0100 	ldrd	r0, r1, [r1]
 8003c84:	f7fc fcec 	bl	8000660 <__aeabi_dmul>
 8003c88:	e9cd 0110 	strd	r0, r1, [sp, #64]	; 0x40
 8003c8c:	9d02      	ldr	r5, [sp, #8]
 8003c8e:	e9dd 0100 	ldrd	r0, r1, [sp]
 8003c92:	f7fc ff95 	bl	8000bc0 <__aeabi_d2iz>
 8003c96:	4606      	mov	r6, r0
 8003c98:	f7fc fc7c 	bl	8000594 <__aeabi_i2d>
 8003c9c:	3630      	adds	r6, #48	; 0x30
 8003c9e:	4602      	mov	r2, r0
 8003ca0:	460b      	mov	r3, r1
 8003ca2:	e9dd 0100 	ldrd	r0, r1, [sp]
 8003ca6:	f7fc fb27 	bl	80002f8 <__aeabi_dsub>
 8003caa:	f805 6b01 	strb.w	r6, [r5], #1
 8003cae:	9b13      	ldr	r3, [sp, #76]	; 0x4c
 8003cb0:	42ab      	cmp	r3, r5
 8003cb2:	4680      	mov	r8, r0
 8003cb4:	4689      	mov	r9, r1
 8003cb6:	f04f 0200 	mov.w	r2, #0
 8003cba:	d125      	bne.n	8003d08 <_dtoa_r+0x5f0>
 8003cbc:	4b1b      	ldr	r3, [pc, #108]	; (8003d2c <_dtoa_r+0x614>)
 8003cbe:	e9dd 0110 	ldrd	r0, r1, [sp, #64]	; 0x40
 8003cc2:	f7fc fb1b 	bl	80002fc <__adddf3>
 8003cc6:	4602      	mov	r2, r0
 8003cc8:	460b      	mov	r3, r1
 8003cca:	4640      	mov	r0, r8
 8003ccc:	4649      	mov	r1, r9
 8003cce:	f7fc ff57 	bl	8000b80 <__aeabi_dcmpgt>
 8003cd2:	2800      	cmp	r0, #0
 8003cd4:	d175      	bne.n	8003dc2 <_dtoa_r+0x6aa>
 8003cd6:	e9dd 2310 	ldrd	r2, r3, [sp, #64]	; 0x40
 8003cda:	2000      	movs	r0, #0
 8003cdc:	4913      	ldr	r1, [pc, #76]	; (8003d2c <_dtoa_r+0x614>)
 8003cde:	f7fc fb0b 	bl	80002f8 <__aeabi_dsub>
 8003ce2:	4602      	mov	r2, r0
 8003ce4:	460b      	mov	r3, r1
 8003ce6:	4640      	mov	r0, r8
 8003ce8:	4649      	mov	r1, r9
 8003cea:	f7fc ff2b 	bl	8000b44 <__aeabi_dcmplt>
 8003cee:	2800      	cmp	r0, #0
 8003cf0:	f43f af2f 	beq.w	8003b52 <_dtoa_r+0x43a>
 8003cf4:	f815 3c01 	ldrb.w	r3, [r5, #-1]
 8003cf8:	2b30      	cmp	r3, #48	; 0x30
 8003cfa:	f105 32ff 	add.w	r2, r5, #4294967295
 8003cfe:	d001      	beq.n	8003d04 <_dtoa_r+0x5ec>
 8003d00:	46bb      	mov	fp, r7
 8003d02:	e04d      	b.n	8003da0 <_dtoa_r+0x688>
 8003d04:	4615      	mov	r5, r2
 8003d06:	e7f5      	b.n	8003cf4 <_dtoa_r+0x5dc>
 8003d08:	4b05      	ldr	r3, [pc, #20]	; (8003d20 <_dtoa_r+0x608>)
 8003d0a:	f7fc fca9 	bl	8000660 <__aeabi_dmul>
 8003d0e:	e9cd 0100 	strd	r0, r1, [sp]
 8003d12:	e7bc      	b.n	8003c8e <_dtoa_r+0x576>
 8003d14:	080058b0 	.word	0x080058b0
 8003d18:	08005888 	.word	0x08005888
 8003d1c:	3ff00000 	.word	0x3ff00000
 8003d20:	40240000 	.word	0x40240000
 8003d24:	401c0000 	.word	0x401c0000
 8003d28:	40140000 	.word	0x40140000
 8003d2c:	3fe00000 	.word	0x3fe00000
 8003d30:	e9dd 6700 	ldrd	r6, r7, [sp]
 8003d34:	9d02      	ldr	r5, [sp, #8]
 8003d36:	4642      	mov	r2, r8
 8003d38:	464b      	mov	r3, r9
 8003d3a:	4630      	mov	r0, r6
 8003d3c:	4639      	mov	r1, r7
 8003d3e:	f7fc fdb9 	bl	80008b4 <__aeabi_ddiv>
 8003d42:	f7fc ff3d 	bl	8000bc0 <__aeabi_d2iz>
 8003d46:	9000      	str	r0, [sp, #0]
 8003d48:	f7fc fc24 	bl	8000594 <__aeabi_i2d>
 8003d4c:	4642      	mov	r2, r8
 8003d4e:	464b      	mov	r3, r9
 8003d50:	f7fc fc86 	bl	8000660 <__aeabi_dmul>
 8003d54:	4602      	mov	r2, r0
 8003d56:	460b      	mov	r3, r1
 8003d58:	4630      	mov	r0, r6
 8003d5a:	4639      	mov	r1, r7
 8003d5c:	f7fc facc 	bl	80002f8 <__aeabi_dsub>
 8003d60:	9e00      	ldr	r6, [sp, #0]
 8003d62:	9f03      	ldr	r7, [sp, #12]
 8003d64:	3630      	adds	r6, #48	; 0x30
 8003d66:	f805 6b01 	strb.w	r6, [r5], #1
 8003d6a:	9e02      	ldr	r6, [sp, #8]
 8003d6c:	1bae      	subs	r6, r5, r6
 8003d6e:	42b7      	cmp	r7, r6
 8003d70:	4602      	mov	r2, r0
 8003d72:	460b      	mov	r3, r1
 8003d74:	d138      	bne.n	8003de8 <_dtoa_r+0x6d0>
 8003d76:	f7fc fac1 	bl	80002fc <__adddf3>
 8003d7a:	4606      	mov	r6, r0
 8003d7c:	460f      	mov	r7, r1
 8003d7e:	4602      	mov	r2, r0
 8003d80:	460b      	mov	r3, r1
 8003d82:	4640      	mov	r0, r8
 8003d84:	4649      	mov	r1, r9
 8003d86:	f7fc fedd 	bl	8000b44 <__aeabi_dcmplt>
 8003d8a:	b9c8      	cbnz	r0, 8003dc0 <_dtoa_r+0x6a8>
 8003d8c:	4632      	mov	r2, r6
 8003d8e:	463b      	mov	r3, r7
 8003d90:	4640      	mov	r0, r8
 8003d92:	4649      	mov	r1, r9
 8003d94:	f7fc fecc 	bl	8000b30 <__aeabi_dcmpeq>
 8003d98:	b110      	cbz	r0, 8003da0 <_dtoa_r+0x688>
 8003d9a:	9b00      	ldr	r3, [sp, #0]
 8003d9c:	07db      	lsls	r3, r3, #31
 8003d9e:	d40f      	bmi.n	8003dc0 <_dtoa_r+0x6a8>
 8003da0:	4651      	mov	r1, sl
 8003da2:	4620      	mov	r0, r4
 8003da4:	f000 fe0f 	bl	80049c6 <_Bfree>
 8003da8:	2300      	movs	r3, #0
 8003daa:	9a0f      	ldr	r2, [sp, #60]	; 0x3c
 8003dac:	702b      	strb	r3, [r5, #0]
 8003dae:	f10b 0301 	add.w	r3, fp, #1
 8003db2:	6013      	str	r3, [r2, #0]
 8003db4:	9b21      	ldr	r3, [sp, #132]	; 0x84
 8003db6:	2b00      	cmp	r3, #0
 8003db8:	f43f acf8 	beq.w	80037ac <_dtoa_r+0x94>
 8003dbc:	601d      	str	r5, [r3, #0]
 8003dbe:	e4f5      	b.n	80037ac <_dtoa_r+0x94>
 8003dc0:	465f      	mov	r7, fp
 8003dc2:	f815 2c01 	ldrb.w	r2, [r5, #-1]
 8003dc6:	2a39      	cmp	r2, #57	; 0x39
 8003dc8:	f105 33ff 	add.w	r3, r5, #4294967295
 8003dcc:	d106      	bne.n	8003ddc <_dtoa_r+0x6c4>
 8003dce:	9a02      	ldr	r2, [sp, #8]
 8003dd0:	429a      	cmp	r2, r3
 8003dd2:	d107      	bne.n	8003de4 <_dtoa_r+0x6cc>
 8003dd4:	2330      	movs	r3, #48	; 0x30
 8003dd6:	7013      	strb	r3, [r2, #0]
 8003dd8:	3701      	adds	r7, #1
 8003dda:	4613      	mov	r3, r2
 8003ddc:	781a      	ldrb	r2, [r3, #0]
 8003dde:	3201      	adds	r2, #1
 8003de0:	701a      	strb	r2, [r3, #0]
 8003de2:	e78d      	b.n	8003d00 <_dtoa_r+0x5e8>
 8003de4:	461d      	mov	r5, r3
 8003de6:	e7ec      	b.n	8003dc2 <_dtoa_r+0x6aa>
 8003de8:	2200      	movs	r2, #0
 8003dea:	4ba4      	ldr	r3, [pc, #656]	; (800407c <_dtoa_r+0x964>)
 8003dec:	f7fc fc38 	bl	8000660 <__aeabi_dmul>
 8003df0:	2200      	movs	r2, #0
 8003df2:	2300      	movs	r3, #0
 8003df4:	4606      	mov	r6, r0
 8003df6:	460f      	mov	r7, r1
 8003df8:	f7fc fe9a 	bl	8000b30 <__aeabi_dcmpeq>
 8003dfc:	2800      	cmp	r0, #0
 8003dfe:	d09a      	beq.n	8003d36 <_dtoa_r+0x61e>
 8003e00:	e7ce      	b.n	8003da0 <_dtoa_r+0x688>
 8003e02:	9a09      	ldr	r2, [sp, #36]	; 0x24
 8003e04:	2a00      	cmp	r2, #0
 8003e06:	f000 80cd 	beq.w	8003fa4 <_dtoa_r+0x88c>
 8003e0a:	9a07      	ldr	r2, [sp, #28]
 8003e0c:	2a01      	cmp	r2, #1
 8003e0e:	f300 80af 	bgt.w	8003f70 <_dtoa_r+0x858>
 8003e12:	9a12      	ldr	r2, [sp, #72]	; 0x48
 8003e14:	2a00      	cmp	r2, #0
 8003e16:	f000 80a7 	beq.w	8003f68 <_dtoa_r+0x850>
 8003e1a:	f203 4333 	addw	r3, r3, #1075	; 0x433
 8003e1e:	9e08      	ldr	r6, [sp, #32]
 8003e20:	9d05      	ldr	r5, [sp, #20]
 8003e22:	9a05      	ldr	r2, [sp, #20]
 8003e24:	441a      	add	r2, r3
 8003e26:	9205      	str	r2, [sp, #20]
 8003e28:	9a06      	ldr	r2, [sp, #24]
 8003e2a:	2101      	movs	r1, #1
 8003e2c:	441a      	add	r2, r3
 8003e2e:	4620      	mov	r0, r4
 8003e30:	9206      	str	r2, [sp, #24]
 8003e32:	f000 fea6 	bl	8004b82 <__i2b>
 8003e36:	4607      	mov	r7, r0
 8003e38:	2d00      	cmp	r5, #0
 8003e3a:	dd0c      	ble.n	8003e56 <_dtoa_r+0x73e>
 8003e3c:	9b06      	ldr	r3, [sp, #24]
 8003e3e:	2b00      	cmp	r3, #0
 8003e40:	dd09      	ble.n	8003e56 <_dtoa_r+0x73e>
 8003e42:	42ab      	cmp	r3, r5
 8003e44:	9a05      	ldr	r2, [sp, #20]
 8003e46:	bfa8      	it	ge
 8003e48:	462b      	movge	r3, r5
 8003e4a:	1ad2      	subs	r2, r2, r3
 8003e4c:	9205      	str	r2, [sp, #20]
 8003e4e:	9a06      	ldr	r2, [sp, #24]
 8003e50:	1aed      	subs	r5, r5, r3
 8003e52:	1ad3      	subs	r3, r2, r3
 8003e54:	9306      	str	r3, [sp, #24]
 8003e56:	9b08      	ldr	r3, [sp, #32]
 8003e58:	b1f3      	cbz	r3, 8003e98 <_dtoa_r+0x780>
 8003e5a:	9b09      	ldr	r3, [sp, #36]	; 0x24
 8003e5c:	2b00      	cmp	r3, #0
 8003e5e:	f000 80a5 	beq.w	8003fac <_dtoa_r+0x894>
 8003e62:	2e00      	cmp	r6, #0
 8003e64:	dd10      	ble.n	8003e88 <_dtoa_r+0x770>
 8003e66:	4639      	mov	r1, r7
 8003e68:	4632      	mov	r2, r6
 8003e6a:	4620      	mov	r0, r4
 8003e6c:	f000 ff20 	bl	8004cb0 <__pow5mult>
 8003e70:	4652      	mov	r2, sl
 8003e72:	4601      	mov	r1, r0
 8003e74:	4607      	mov	r7, r0
 8003e76:	4620      	mov	r0, r4
 8003e78:	f000 fe8c 	bl	8004b94 <__multiply>
 8003e7c:	4651      	mov	r1, sl
 8003e7e:	4680      	mov	r8, r0
 8003e80:	4620      	mov	r0, r4
 8003e82:	f000 fda0 	bl	80049c6 <_Bfree>
 8003e86:	46c2      	mov	sl, r8
 8003e88:	9b08      	ldr	r3, [sp, #32]
 8003e8a:	1b9a      	subs	r2, r3, r6
 8003e8c:	d004      	beq.n	8003e98 <_dtoa_r+0x780>
 8003e8e:	4651      	mov	r1, sl
 8003e90:	4620      	mov	r0, r4
 8003e92:	f000 ff0d 	bl	8004cb0 <__pow5mult>
 8003e96:	4682      	mov	sl, r0
 8003e98:	2101      	movs	r1, #1
 8003e9a:	4620      	mov	r0, r4
 8003e9c:	f000 fe71 	bl	8004b82 <__i2b>
 8003ea0:	9b0b      	ldr	r3, [sp, #44]	; 0x2c
 8003ea2:	2b00      	cmp	r3, #0
 8003ea4:	4606      	mov	r6, r0
 8003ea6:	f340 8083 	ble.w	8003fb0 <_dtoa_r+0x898>
 8003eaa:	461a      	mov	r2, r3
 8003eac:	4601      	mov	r1, r0
 8003eae:	4620      	mov	r0, r4
 8003eb0:	f000 fefe 	bl	8004cb0 <__pow5mult>
 8003eb4:	9b07      	ldr	r3, [sp, #28]
 8003eb6:	2b01      	cmp	r3, #1
 8003eb8:	4606      	mov	r6, r0
 8003eba:	dd7c      	ble.n	8003fb6 <_dtoa_r+0x89e>
 8003ebc:	f04f 0800 	mov.w	r8, #0
 8003ec0:	6933      	ldr	r3, [r6, #16]
 8003ec2:	eb06 0383 	add.w	r3, r6, r3, lsl #2
 8003ec6:	6918      	ldr	r0, [r3, #16]
 8003ec8:	f000 fe0d 	bl	8004ae6 <__hi0bits>
 8003ecc:	f1c0 0020 	rsb	r0, r0, #32
 8003ed0:	9b06      	ldr	r3, [sp, #24]
 8003ed2:	4418      	add	r0, r3
 8003ed4:	f010 001f 	ands.w	r0, r0, #31
 8003ed8:	f000 8096 	beq.w	8004008 <_dtoa_r+0x8f0>
 8003edc:	f1c0 0320 	rsb	r3, r0, #32
 8003ee0:	2b04      	cmp	r3, #4
 8003ee2:	f340 8087 	ble.w	8003ff4 <_dtoa_r+0x8dc>
 8003ee6:	9b05      	ldr	r3, [sp, #20]
 8003ee8:	f1c0 001c 	rsb	r0, r0, #28
 8003eec:	4403      	add	r3, r0
 8003eee:	9305      	str	r3, [sp, #20]
 8003ef0:	9b06      	ldr	r3, [sp, #24]
 8003ef2:	4405      	add	r5, r0
 8003ef4:	4403      	add	r3, r0
 8003ef6:	9306      	str	r3, [sp, #24]
 8003ef8:	9b05      	ldr	r3, [sp, #20]
 8003efa:	2b00      	cmp	r3, #0
 8003efc:	dd05      	ble.n	8003f0a <_dtoa_r+0x7f2>
 8003efe:	4651      	mov	r1, sl
 8003f00:	461a      	mov	r2, r3
 8003f02:	4620      	mov	r0, r4
 8003f04:	f000 ff22 	bl	8004d4c <__lshift>
 8003f08:	4682      	mov	sl, r0
 8003f0a:	9b06      	ldr	r3, [sp, #24]
 8003f0c:	2b00      	cmp	r3, #0
 8003f0e:	dd05      	ble.n	8003f1c <_dtoa_r+0x804>
 8003f10:	4631      	mov	r1, r6
 8003f12:	461a      	mov	r2, r3
 8003f14:	4620      	mov	r0, r4
 8003f16:	f000 ff19 	bl	8004d4c <__lshift>
 8003f1a:	4606      	mov	r6, r0
 8003f1c:	9b0e      	ldr	r3, [sp, #56]	; 0x38
 8003f1e:	2b00      	cmp	r3, #0
 8003f20:	d074      	beq.n	800400c <_dtoa_r+0x8f4>
 8003f22:	4631      	mov	r1, r6
 8003f24:	4650      	mov	r0, sl
 8003f26:	f000 ff62 	bl	8004dee <__mcmp>
 8003f2a:	2800      	cmp	r0, #0
 8003f2c:	da6e      	bge.n	800400c <_dtoa_r+0x8f4>
 8003f2e:	2300      	movs	r3, #0
 8003f30:	4651      	mov	r1, sl
 8003f32:	220a      	movs	r2, #10
 8003f34:	4620      	mov	r0, r4
 8003f36:	f000 fd5d 	bl	80049f4 <__multadd>
 8003f3a:	9b09      	ldr	r3, [sp, #36]	; 0x24
 8003f3c:	f10b 3bff 	add.w	fp, fp, #4294967295
 8003f40:	4682      	mov	sl, r0
 8003f42:	2b00      	cmp	r3, #0
 8003f44:	f000 81a8 	beq.w	8004298 <_dtoa_r+0xb80>
 8003f48:	2300      	movs	r3, #0
 8003f4a:	4639      	mov	r1, r7
 8003f4c:	220a      	movs	r2, #10
 8003f4e:	4620      	mov	r0, r4
 8003f50:	f000 fd50 	bl	80049f4 <__multadd>
 8003f54:	9b04      	ldr	r3, [sp, #16]
 8003f56:	2b00      	cmp	r3, #0
 8003f58:	4607      	mov	r7, r0
 8003f5a:	f300 80c8 	bgt.w	80040ee <_dtoa_r+0x9d6>
 8003f5e:	9b07      	ldr	r3, [sp, #28]
 8003f60:	2b02      	cmp	r3, #2
 8003f62:	f340 80c4 	ble.w	80040ee <_dtoa_r+0x9d6>
 8003f66:	e059      	b.n	800401c <_dtoa_r+0x904>
 8003f68:	9b14      	ldr	r3, [sp, #80]	; 0x50
 8003f6a:	f1c3 0336 	rsb	r3, r3, #54	; 0x36
 8003f6e:	e756      	b.n	8003e1e <_dtoa_r+0x706>
 8003f70:	9b03      	ldr	r3, [sp, #12]
 8003f72:	1e5e      	subs	r6, r3, #1
 8003f74:	9b08      	ldr	r3, [sp, #32]
 8003f76:	42b3      	cmp	r3, r6
 8003f78:	bfbf      	itttt	lt
 8003f7a:	9b08      	ldrlt	r3, [sp, #32]
 8003f7c:	9608      	strlt	r6, [sp, #32]
 8003f7e:	1af2      	sublt	r2, r6, r3
 8003f80:	9b0b      	ldrlt	r3, [sp, #44]	; 0x2c
 8003f82:	bfb6      	itet	lt
 8003f84:	189b      	addlt	r3, r3, r2
 8003f86:	1b9e      	subge	r6, r3, r6
 8003f88:	930b      	strlt	r3, [sp, #44]	; 0x2c
 8003f8a:	9b03      	ldr	r3, [sp, #12]
 8003f8c:	bfb8      	it	lt
 8003f8e:	2600      	movlt	r6, #0
 8003f90:	2b00      	cmp	r3, #0
 8003f92:	bfb9      	ittee	lt
 8003f94:	9b05      	ldrlt	r3, [sp, #20]
 8003f96:	9a03      	ldrlt	r2, [sp, #12]
 8003f98:	9d05      	ldrge	r5, [sp, #20]
 8003f9a:	9b03      	ldrge	r3, [sp, #12]
 8003f9c:	bfbc      	itt	lt
 8003f9e:	1a9d      	sublt	r5, r3, r2
 8003fa0:	2300      	movlt	r3, #0
 8003fa2:	e73e      	b.n	8003e22 <_dtoa_r+0x70a>
 8003fa4:	9e08      	ldr	r6, [sp, #32]
 8003fa6:	9d05      	ldr	r5, [sp, #20]
 8003fa8:	9f09      	ldr	r7, [sp, #36]	; 0x24
 8003faa:	e745      	b.n	8003e38 <_dtoa_r+0x720>
 8003fac:	9a08      	ldr	r2, [sp, #32]
 8003fae:	e76e      	b.n	8003e8e <_dtoa_r+0x776>
 8003fb0:	9b07      	ldr	r3, [sp, #28]
 8003fb2:	2b01      	cmp	r3, #1
 8003fb4:	dc19      	bgt.n	8003fea <_dtoa_r+0x8d2>
 8003fb6:	9b00      	ldr	r3, [sp, #0]
 8003fb8:	b9bb      	cbnz	r3, 8003fea <_dtoa_r+0x8d2>
 8003fba:	9b01      	ldr	r3, [sp, #4]
 8003fbc:	f3c3 0313 	ubfx	r3, r3, #0, #20
 8003fc0:	b99b      	cbnz	r3, 8003fea <_dtoa_r+0x8d2>
 8003fc2:	9b01      	ldr	r3, [sp, #4]
 8003fc4:	f023 4300 	bic.w	r3, r3, #2147483648	; 0x80000000
 8003fc8:	0d1b      	lsrs	r3, r3, #20
 8003fca:	051b      	lsls	r3, r3, #20
 8003fcc:	b183      	cbz	r3, 8003ff0 <_dtoa_r+0x8d8>
 8003fce:	9b05      	ldr	r3, [sp, #20]
 8003fd0:	3301      	adds	r3, #1
 8003fd2:	9305      	str	r3, [sp, #20]
 8003fd4:	9b06      	ldr	r3, [sp, #24]
 8003fd6:	3301      	adds	r3, #1
 8003fd8:	9306      	str	r3, [sp, #24]
 8003fda:	f04f 0801 	mov.w	r8, #1
 8003fde:	9b0b      	ldr	r3, [sp, #44]	; 0x2c
 8003fe0:	2b00      	cmp	r3, #0
 8003fe2:	f47f af6d 	bne.w	8003ec0 <_dtoa_r+0x7a8>
 8003fe6:	2001      	movs	r0, #1
 8003fe8:	e772      	b.n	8003ed0 <_dtoa_r+0x7b8>
 8003fea:	f04f 0800 	mov.w	r8, #0
 8003fee:	e7f6      	b.n	8003fde <_dtoa_r+0x8c6>
 8003ff0:	4698      	mov	r8, r3
 8003ff2:	e7f4      	b.n	8003fde <_dtoa_r+0x8c6>
 8003ff4:	d080      	beq.n	8003ef8 <_dtoa_r+0x7e0>
 8003ff6:	9a05      	ldr	r2, [sp, #20]
 8003ff8:	331c      	adds	r3, #28
 8003ffa:	441a      	add	r2, r3
 8003ffc:	9205      	str	r2, [sp, #20]
 8003ffe:	9a06      	ldr	r2, [sp, #24]
 8004000:	441a      	add	r2, r3
 8004002:	441d      	add	r5, r3
 8004004:	4613      	mov	r3, r2
 8004006:	e776      	b.n	8003ef6 <_dtoa_r+0x7de>
 8004008:	4603      	mov	r3, r0
 800400a:	e7f4      	b.n	8003ff6 <_dtoa_r+0x8de>
 800400c:	9b03      	ldr	r3, [sp, #12]
 800400e:	2b00      	cmp	r3, #0
 8004010:	dc36      	bgt.n	8004080 <_dtoa_r+0x968>
 8004012:	9b07      	ldr	r3, [sp, #28]
 8004014:	2b02      	cmp	r3, #2
 8004016:	dd33      	ble.n	8004080 <_dtoa_r+0x968>
 8004018:	9b03      	ldr	r3, [sp, #12]
 800401a:	9304      	str	r3, [sp, #16]
 800401c:	9b04      	ldr	r3, [sp, #16]
 800401e:	b963      	cbnz	r3, 800403a <_dtoa_r+0x922>
 8004020:	4631      	mov	r1, r6
 8004022:	2205      	movs	r2, #5
 8004024:	4620      	mov	r0, r4
 8004026:	f000 fce5 	bl	80049f4 <__multadd>
 800402a:	4601      	mov	r1, r0
 800402c:	4606      	mov	r6, r0
 800402e:	4650      	mov	r0, sl
 8004030:	f000 fedd 	bl	8004dee <__mcmp>
 8004034:	2800      	cmp	r0, #0
 8004036:	f73f adb6 	bgt.w	8003ba6 <_dtoa_r+0x48e>
 800403a:	9b0a      	ldr	r3, [sp, #40]	; 0x28
 800403c:	9d02      	ldr	r5, [sp, #8]
 800403e:	ea6f 0b03 	mvn.w	fp, r3
 8004042:	2300      	movs	r3, #0
 8004044:	9303      	str	r3, [sp, #12]
 8004046:	4631      	mov	r1, r6
 8004048:	4620      	mov	r0, r4
 800404a:	f000 fcbc 	bl	80049c6 <_Bfree>
 800404e:	2f00      	cmp	r7, #0
 8004050:	f43f aea6 	beq.w	8003da0 <_dtoa_r+0x688>
 8004054:	9b03      	ldr	r3, [sp, #12]
 8004056:	b12b      	cbz	r3, 8004064 <_dtoa_r+0x94c>
 8004058:	42bb      	cmp	r3, r7
 800405a:	d003      	beq.n	8004064 <_dtoa_r+0x94c>
 800405c:	4619      	mov	r1, r3
 800405e:	4620      	mov	r0, r4
 8004060:	f000 fcb1 	bl	80049c6 <_Bfree>
 8004064:	4639      	mov	r1, r7
 8004066:	4620      	mov	r0, r4
 8004068:	f000 fcad 	bl	80049c6 <_Bfree>
 800406c:	e698      	b.n	8003da0 <_dtoa_r+0x688>
 800406e:	2600      	movs	r6, #0
 8004070:	4637      	mov	r7, r6
 8004072:	e7e2      	b.n	800403a <_dtoa_r+0x922>
 8004074:	46bb      	mov	fp, r7
 8004076:	4637      	mov	r7, r6
 8004078:	e595      	b.n	8003ba6 <_dtoa_r+0x48e>
 800407a:	bf00      	nop
 800407c:	40240000 	.word	0x40240000
 8004080:	9b09      	ldr	r3, [sp, #36]	; 0x24
 8004082:	bb93      	cbnz	r3, 80040ea <_dtoa_r+0x9d2>
 8004084:	9b03      	ldr	r3, [sp, #12]
 8004086:	9304      	str	r3, [sp, #16]
 8004088:	9d02      	ldr	r5, [sp, #8]
 800408a:	4631      	mov	r1, r6
 800408c:	4650      	mov	r0, sl
 800408e:	f7ff fab5 	bl	80035fc <quorem>
 8004092:	f100 0930 	add.w	r9, r0, #48	; 0x30
 8004096:	f805 9b01 	strb.w	r9, [r5], #1
 800409a:	9b02      	ldr	r3, [sp, #8]
 800409c:	9a04      	ldr	r2, [sp, #16]
 800409e:	1aeb      	subs	r3, r5, r3
 80040a0:	429a      	cmp	r2, r3
 80040a2:	f300 80dc 	bgt.w	800425e <_dtoa_r+0xb46>
 80040a6:	9b02      	ldr	r3, [sp, #8]
 80040a8:	2a01      	cmp	r2, #1
 80040aa:	bfac      	ite	ge
 80040ac:	189b      	addge	r3, r3, r2
 80040ae:	3301      	addlt	r3, #1
 80040b0:	4698      	mov	r8, r3
 80040b2:	2300      	movs	r3, #0
 80040b4:	9303      	str	r3, [sp, #12]
 80040b6:	4651      	mov	r1, sl
 80040b8:	2201      	movs	r2, #1
 80040ba:	4620      	mov	r0, r4
 80040bc:	f000 fe46 	bl	8004d4c <__lshift>
 80040c0:	4631      	mov	r1, r6
 80040c2:	4682      	mov	sl, r0
 80040c4:	f000 fe93 	bl	8004dee <__mcmp>
 80040c8:	2800      	cmp	r0, #0
 80040ca:	f300 808d 	bgt.w	80041e8 <_dtoa_r+0xad0>
 80040ce:	d103      	bne.n	80040d8 <_dtoa_r+0x9c0>
 80040d0:	f019 0f01 	tst.w	r9, #1
 80040d4:	f040 8088 	bne.w	80041e8 <_dtoa_r+0xad0>
 80040d8:	4645      	mov	r5, r8
 80040da:	f815 3c01 	ldrb.w	r3, [r5, #-1]
 80040de:	2b30      	cmp	r3, #48	; 0x30
 80040e0:	f105 32ff 	add.w	r2, r5, #4294967295
 80040e4:	d1af      	bne.n	8004046 <_dtoa_r+0x92e>
 80040e6:	4615      	mov	r5, r2
 80040e8:	e7f7      	b.n	80040da <_dtoa_r+0x9c2>
 80040ea:	9b03      	ldr	r3, [sp, #12]
 80040ec:	9304      	str	r3, [sp, #16]
 80040ee:	2d00      	cmp	r5, #0
 80040f0:	dd05      	ble.n	80040fe <_dtoa_r+0x9e6>
 80040f2:	4639      	mov	r1, r7
 80040f4:	462a      	mov	r2, r5
 80040f6:	4620      	mov	r0, r4
 80040f8:	f000 fe28 	bl	8004d4c <__lshift>
 80040fc:	4607      	mov	r7, r0
 80040fe:	f1b8 0f00 	cmp.w	r8, #0
 8004102:	d04c      	beq.n	800419e <_dtoa_r+0xa86>
 8004104:	6879      	ldr	r1, [r7, #4]
 8004106:	4620      	mov	r0, r4
 8004108:	f000 fc29 	bl	800495e <_Balloc>
 800410c:	693a      	ldr	r2, [r7, #16]
 800410e:	3202      	adds	r2, #2
 8004110:	4605      	mov	r5, r0
 8004112:	0092      	lsls	r2, r2, #2
 8004114:	f107 010c 	add.w	r1, r7, #12
 8004118:	300c      	adds	r0, #12
 800411a:	f000 fc15 	bl	8004948 <memcpy>
 800411e:	2201      	movs	r2, #1
 8004120:	4629      	mov	r1, r5
 8004122:	4620      	mov	r0, r4
 8004124:	f000 fe12 	bl	8004d4c <__lshift>
 8004128:	9b00      	ldr	r3, [sp, #0]
 800412a:	f8dd 8008 	ldr.w	r8, [sp, #8]
 800412e:	9703      	str	r7, [sp, #12]
 8004130:	f003 0301 	and.w	r3, r3, #1
 8004134:	4607      	mov	r7, r0
 8004136:	9305      	str	r3, [sp, #20]
 8004138:	4631      	mov	r1, r6
 800413a:	4650      	mov	r0, sl
 800413c:	f7ff fa5e 	bl	80035fc <quorem>
 8004140:	9903      	ldr	r1, [sp, #12]
 8004142:	4605      	mov	r5, r0
 8004144:	f100 0930 	add.w	r9, r0, #48	; 0x30
 8004148:	4650      	mov	r0, sl
 800414a:	f000 fe50 	bl	8004dee <__mcmp>
 800414e:	463a      	mov	r2, r7
 8004150:	9000      	str	r0, [sp, #0]
 8004152:	4631      	mov	r1, r6
 8004154:	4620      	mov	r0, r4
 8004156:	f000 fe64 	bl	8004e22 <__mdiff>
 800415a:	68c3      	ldr	r3, [r0, #12]
 800415c:	4602      	mov	r2, r0
 800415e:	bb03      	cbnz	r3, 80041a2 <_dtoa_r+0xa8a>
 8004160:	4601      	mov	r1, r0
 8004162:	9006      	str	r0, [sp, #24]
 8004164:	4650      	mov	r0, sl
 8004166:	f000 fe42 	bl	8004dee <__mcmp>
 800416a:	9a06      	ldr	r2, [sp, #24]
 800416c:	4603      	mov	r3, r0
 800416e:	4611      	mov	r1, r2
 8004170:	4620      	mov	r0, r4
 8004172:	9306      	str	r3, [sp, #24]
 8004174:	f000 fc27 	bl	80049c6 <_Bfree>
 8004178:	9b06      	ldr	r3, [sp, #24]
 800417a:	b9a3      	cbnz	r3, 80041a6 <_dtoa_r+0xa8e>
 800417c:	9a07      	ldr	r2, [sp, #28]
 800417e:	b992      	cbnz	r2, 80041a6 <_dtoa_r+0xa8e>
 8004180:	9a05      	ldr	r2, [sp, #20]
 8004182:	b982      	cbnz	r2, 80041a6 <_dtoa_r+0xa8e>
 8004184:	f1b9 0f39 	cmp.w	r9, #57	; 0x39
 8004188:	d029      	beq.n	80041de <_dtoa_r+0xac6>
 800418a:	9b00      	ldr	r3, [sp, #0]
 800418c:	2b00      	cmp	r3, #0
 800418e:	dd01      	ble.n	8004194 <_dtoa_r+0xa7c>
 8004190:	f105 0931 	add.w	r9, r5, #49	; 0x31
 8004194:	f108 0501 	add.w	r5, r8, #1
 8004198:	f888 9000 	strb.w	r9, [r8]
 800419c:	e753      	b.n	8004046 <_dtoa_r+0x92e>
 800419e:	4638      	mov	r0, r7
 80041a0:	e7c2      	b.n	8004128 <_dtoa_r+0xa10>
 80041a2:	2301      	movs	r3, #1
 80041a4:	e7e3      	b.n	800416e <_dtoa_r+0xa56>
 80041a6:	9a00      	ldr	r2, [sp, #0]
 80041a8:	2a00      	cmp	r2, #0
 80041aa:	db04      	blt.n	80041b6 <_dtoa_r+0xa9e>
 80041ac:	d125      	bne.n	80041fa <_dtoa_r+0xae2>
 80041ae:	9a07      	ldr	r2, [sp, #28]
 80041b0:	bb1a      	cbnz	r2, 80041fa <_dtoa_r+0xae2>
 80041b2:	9a05      	ldr	r2, [sp, #20]
 80041b4:	bb0a      	cbnz	r2, 80041fa <_dtoa_r+0xae2>
 80041b6:	2b00      	cmp	r3, #0
 80041b8:	ddec      	ble.n	8004194 <_dtoa_r+0xa7c>
 80041ba:	4651      	mov	r1, sl
 80041bc:	2201      	movs	r2, #1
 80041be:	4620      	mov	r0, r4
 80041c0:	f000 fdc4 	bl	8004d4c <__lshift>
 80041c4:	4631      	mov	r1, r6
 80041c6:	4682      	mov	sl, r0
 80041c8:	f000 fe11 	bl	8004dee <__mcmp>
 80041cc:	2800      	cmp	r0, #0
 80041ce:	dc03      	bgt.n	80041d8 <_dtoa_r+0xac0>
 80041d0:	d1e0      	bne.n	8004194 <_dtoa_r+0xa7c>
 80041d2:	f019 0f01 	tst.w	r9, #1
 80041d6:	d0dd      	beq.n	8004194 <_dtoa_r+0xa7c>
 80041d8:	f1b9 0f39 	cmp.w	r9, #57	; 0x39
 80041dc:	d1d8      	bne.n	8004190 <_dtoa_r+0xa78>
 80041de:	2339      	movs	r3, #57	; 0x39
 80041e0:	f888 3000 	strb.w	r3, [r8]
 80041e4:	f108 0801 	add.w	r8, r8, #1
 80041e8:	4645      	mov	r5, r8
 80041ea:	f815 3c01 	ldrb.w	r3, [r5, #-1]
 80041ee:	2b39      	cmp	r3, #57	; 0x39
 80041f0:	f105 32ff 	add.w	r2, r5, #4294967295
 80041f4:	d03b      	beq.n	800426e <_dtoa_r+0xb56>
 80041f6:	3301      	adds	r3, #1
 80041f8:	e040      	b.n	800427c <_dtoa_r+0xb64>
 80041fa:	2b00      	cmp	r3, #0
 80041fc:	f108 0501 	add.w	r5, r8, #1
 8004200:	dd05      	ble.n	800420e <_dtoa_r+0xaf6>
 8004202:	f1b9 0f39 	cmp.w	r9, #57	; 0x39
 8004206:	d0ea      	beq.n	80041de <_dtoa_r+0xac6>
 8004208:	f109 0901 	add.w	r9, r9, #1
 800420c:	e7c4      	b.n	8004198 <_dtoa_r+0xa80>
 800420e:	9b02      	ldr	r3, [sp, #8]
 8004210:	9a04      	ldr	r2, [sp, #16]
 8004212:	f805 9c01 	strb.w	r9, [r5, #-1]
 8004216:	1aeb      	subs	r3, r5, r3
 8004218:	4293      	cmp	r3, r2
 800421a:	46a8      	mov	r8, r5
 800421c:	f43f af4b 	beq.w	80040b6 <_dtoa_r+0x99e>
 8004220:	4651      	mov	r1, sl
 8004222:	2300      	movs	r3, #0
 8004224:	220a      	movs	r2, #10
 8004226:	4620      	mov	r0, r4
 8004228:	f000 fbe4 	bl	80049f4 <__multadd>
 800422c:	9b03      	ldr	r3, [sp, #12]
 800422e:	9903      	ldr	r1, [sp, #12]
 8004230:	42bb      	cmp	r3, r7
 8004232:	4682      	mov	sl, r0
 8004234:	f04f 0300 	mov.w	r3, #0
 8004238:	f04f 020a 	mov.w	r2, #10
 800423c:	4620      	mov	r0, r4
 800423e:	d104      	bne.n	800424a <_dtoa_r+0xb32>
 8004240:	f000 fbd8 	bl	80049f4 <__multadd>
 8004244:	9003      	str	r0, [sp, #12]
 8004246:	4607      	mov	r7, r0
 8004248:	e776      	b.n	8004138 <_dtoa_r+0xa20>
 800424a:	f000 fbd3 	bl	80049f4 <__multadd>
 800424e:	2300      	movs	r3, #0
 8004250:	9003      	str	r0, [sp, #12]
 8004252:	220a      	movs	r2, #10
 8004254:	4639      	mov	r1, r7
 8004256:	4620      	mov	r0, r4
 8004258:	f000 fbcc 	bl	80049f4 <__multadd>
 800425c:	e7f3      	b.n	8004246 <_dtoa_r+0xb2e>
 800425e:	4651      	mov	r1, sl
 8004260:	2300      	movs	r3, #0
 8004262:	220a      	movs	r2, #10
 8004264:	4620      	mov	r0, r4
 8004266:	f000 fbc5 	bl	80049f4 <__multadd>
 800426a:	4682      	mov	sl, r0
 800426c:	e70d      	b.n	800408a <_dtoa_r+0x972>
 800426e:	9b02      	ldr	r3, [sp, #8]
 8004270:	4293      	cmp	r3, r2
 8004272:	d105      	bne.n	8004280 <_dtoa_r+0xb68>
 8004274:	9a02      	ldr	r2, [sp, #8]
 8004276:	f10b 0b01 	add.w	fp, fp, #1
 800427a:	2331      	movs	r3, #49	; 0x31
 800427c:	7013      	strb	r3, [r2, #0]
 800427e:	e6e2      	b.n	8004046 <_dtoa_r+0x92e>
 8004280:	4615      	mov	r5, r2
 8004282:	e7b2      	b.n	80041ea <_dtoa_r+0xad2>
 8004284:	4b09      	ldr	r3, [pc, #36]	; (80042ac <_dtoa_r+0xb94>)
 8004286:	f7ff baae 	b.w	80037e6 <_dtoa_r+0xce>
 800428a:	9b21      	ldr	r3, [sp, #132]	; 0x84
 800428c:	2b00      	cmp	r3, #0
 800428e:	f47f aa88 	bne.w	80037a2 <_dtoa_r+0x8a>
 8004292:	4b07      	ldr	r3, [pc, #28]	; (80042b0 <_dtoa_r+0xb98>)
 8004294:	f7ff baa7 	b.w	80037e6 <_dtoa_r+0xce>
 8004298:	9b04      	ldr	r3, [sp, #16]
 800429a:	2b00      	cmp	r3, #0
 800429c:	f73f aef4 	bgt.w	8004088 <_dtoa_r+0x970>
 80042a0:	9b07      	ldr	r3, [sp, #28]
 80042a2:	2b02      	cmp	r3, #2
 80042a4:	f77f aef0 	ble.w	8004088 <_dtoa_r+0x970>
 80042a8:	e6b8      	b.n	800401c <_dtoa_r+0x904>
 80042aa:	bf00      	nop
 80042ac:	0800578b 	.word	0x0800578b
 80042b0:	08005808 	.word	0x08005808

080042b4 <rshift>:
 80042b4:	b5f0      	push	{r4, r5, r6, r7, lr}
 80042b6:	6906      	ldr	r6, [r0, #16]
 80042b8:	114b      	asrs	r3, r1, #5
 80042ba:	42b3      	cmp	r3, r6
 80042bc:	f100 0514 	add.w	r5, r0, #20
 80042c0:	da2b      	bge.n	800431a <rshift+0x66>
 80042c2:	f011 011f 	ands.w	r1, r1, #31
 80042c6:	eb05 0686 	add.w	r6, r5, r6, lsl #2
 80042ca:	eb05 0283 	add.w	r2, r5, r3, lsl #2
 80042ce:	d108      	bne.n	80042e2 <rshift+0x2e>
 80042d0:	4629      	mov	r1, r5
 80042d2:	42b2      	cmp	r2, r6
 80042d4:	460b      	mov	r3, r1
 80042d6:	d210      	bcs.n	80042fa <rshift+0x46>
 80042d8:	f852 3b04 	ldr.w	r3, [r2], #4
 80042dc:	f841 3b04 	str.w	r3, [r1], #4
 80042e0:	e7f7      	b.n	80042d2 <rshift+0x1e>
 80042e2:	f855 4023 	ldr.w	r4, [r5, r3, lsl #2]
 80042e6:	f1c1 0e20 	rsb	lr, r1, #32
 80042ea:	3204      	adds	r2, #4
 80042ec:	40cc      	lsrs	r4, r1
 80042ee:	462b      	mov	r3, r5
 80042f0:	42b2      	cmp	r2, r6
 80042f2:	d308      	bcc.n	8004306 <rshift+0x52>
 80042f4:	601c      	str	r4, [r3, #0]
 80042f6:	b104      	cbz	r4, 80042fa <rshift+0x46>
 80042f8:	3304      	adds	r3, #4
 80042fa:	1b5b      	subs	r3, r3, r5
 80042fc:	109b      	asrs	r3, r3, #2
 80042fe:	6103      	str	r3, [r0, #16]
 8004300:	b903      	cbnz	r3, 8004304 <rshift+0x50>
 8004302:	6143      	str	r3, [r0, #20]
 8004304:	bdf0      	pop	{r4, r5, r6, r7, pc}
 8004306:	6817      	ldr	r7, [r2, #0]
 8004308:	fa07 f70e 	lsl.w	r7, r7, lr
 800430c:	433c      	orrs	r4, r7
 800430e:	f843 4b04 	str.w	r4, [r3], #4
 8004312:	f852 4b04 	ldr.w	r4, [r2], #4
 8004316:	40cc      	lsrs	r4, r1
 8004318:	e7ea      	b.n	80042f0 <rshift+0x3c>
 800431a:	462b      	mov	r3, r5
 800431c:	e7ed      	b.n	80042fa <rshift+0x46>

0800431e <__hexdig_fun>:
 800431e:	f1a0 0330 	sub.w	r3, r0, #48	; 0x30
 8004322:	2b09      	cmp	r3, #9
 8004324:	d802      	bhi.n	800432c <__hexdig_fun+0xe>
 8004326:	3820      	subs	r0, #32
 8004328:	b2c0      	uxtb	r0, r0
 800432a:	4770      	bx	lr
 800432c:	f1a0 0361 	sub.w	r3, r0, #97	; 0x61
 8004330:	2b05      	cmp	r3, #5
 8004332:	d801      	bhi.n	8004338 <__hexdig_fun+0x1a>
 8004334:	3847      	subs	r0, #71	; 0x47
 8004336:	e7f7      	b.n	8004328 <__hexdig_fun+0xa>
 8004338:	f1a0 0341 	sub.w	r3, r0, #65	; 0x41
 800433c:	2b05      	cmp	r3, #5
 800433e:	d801      	bhi.n	8004344 <__hexdig_fun+0x26>
 8004340:	3827      	subs	r0, #39	; 0x27
 8004342:	e7f1      	b.n	8004328 <__hexdig_fun+0xa>
 8004344:	2000      	movs	r0, #0
 8004346:	4770      	bx	lr

08004348 <__gethex>:
 8004348:	e92d 4ff0 	stmdb	sp!, {r4, r5, r6, r7, r8, r9, sl, fp, lr}
 800434c:	b08b      	sub	sp, #44	; 0x2c
 800434e:	468a      	mov	sl, r1
 8004350:	9002      	str	r0, [sp, #8]
 8004352:	9816      	ldr	r0, [sp, #88]	; 0x58
 8004354:	9306      	str	r3, [sp, #24]
 8004356:	4690      	mov	r8, r2
 8004358:	f000 facc 	bl	80048f4 <__localeconv_l>
 800435c:	6803      	ldr	r3, [r0, #0]
 800435e:	9303      	str	r3, [sp, #12]
 8004360:	4618      	mov	r0, r3
 8004362:	f7fb ff6b 	bl	800023c <strlen>
 8004366:	9b03      	ldr	r3, [sp, #12]
 8004368:	9001      	str	r0, [sp, #4]
 800436a:	4403      	add	r3, r0
 800436c:	f04f 0b00 	mov.w	fp, #0
 8004370:	f813 3c01 	ldrb.w	r3, [r3, #-1]
 8004374:	9307      	str	r3, [sp, #28]
 8004376:	f8da 3000 	ldr.w	r3, [sl]
 800437a:	3302      	adds	r3, #2
 800437c:	461f      	mov	r7, r3
 800437e:	f813 0b01 	ldrb.w	r0, [r3], #1
 8004382:	2830      	cmp	r0, #48	; 0x30
 8004384:	d06c      	beq.n	8004460 <__gethex+0x118>
 8004386:	f7ff ffca 	bl	800431e <__hexdig_fun>
 800438a:	4604      	mov	r4, r0
 800438c:	2800      	cmp	r0, #0
 800438e:	d16a      	bne.n	8004466 <__gethex+0x11e>
 8004390:	9a01      	ldr	r2, [sp, #4]
 8004392:	9903      	ldr	r1, [sp, #12]
 8004394:	4638      	mov	r0, r7
 8004396:	f001 f8e9 	bl	800556c <strncmp>
 800439a:	2800      	cmp	r0, #0
 800439c:	d166      	bne.n	800446c <__gethex+0x124>
 800439e:	9b01      	ldr	r3, [sp, #4]
 80043a0:	5cf8      	ldrb	r0, [r7, r3]
 80043a2:	18fe      	adds	r6, r7, r3
 80043a4:	f7ff ffbb 	bl	800431e <__hexdig_fun>
 80043a8:	2800      	cmp	r0, #0
 80043aa:	d062      	beq.n	8004472 <__gethex+0x12a>
 80043ac:	4633      	mov	r3, r6
 80043ae:	7818      	ldrb	r0, [r3, #0]
 80043b0:	2830      	cmp	r0, #48	; 0x30
 80043b2:	461f      	mov	r7, r3
 80043b4:	f103 0301 	add.w	r3, r3, #1
 80043b8:	d0f9      	beq.n	80043ae <__gethex+0x66>
 80043ba:	f7ff ffb0 	bl	800431e <__hexdig_fun>
 80043be:	fab0 f580 	clz	r5, r0
 80043c2:	096d      	lsrs	r5, r5, #5
 80043c4:	4634      	mov	r4, r6
 80043c6:	f04f 0b01 	mov.w	fp, #1
 80043ca:	463a      	mov	r2, r7
 80043cc:	4616      	mov	r6, r2
 80043ce:	3201      	adds	r2, #1
 80043d0:	7830      	ldrb	r0, [r6, #0]
 80043d2:	f7ff ffa4 	bl	800431e <__hexdig_fun>
 80043d6:	2800      	cmp	r0, #0
 80043d8:	d1f8      	bne.n	80043cc <__gethex+0x84>
 80043da:	9a01      	ldr	r2, [sp, #4]
 80043dc:	9903      	ldr	r1, [sp, #12]
 80043de:	4630      	mov	r0, r6
 80043e0:	f001 f8c4 	bl	800556c <strncmp>
 80043e4:	b950      	cbnz	r0, 80043fc <__gethex+0xb4>
 80043e6:	b954      	cbnz	r4, 80043fe <__gethex+0xb6>
 80043e8:	9b01      	ldr	r3, [sp, #4]
 80043ea:	18f4      	adds	r4, r6, r3
 80043ec:	4622      	mov	r2, r4
 80043ee:	4616      	mov	r6, r2
 80043f0:	3201      	adds	r2, #1
 80043f2:	7830      	ldrb	r0, [r6, #0]
 80043f4:	f7ff ff93 	bl	800431e <__hexdig_fun>
 80043f8:	2800      	cmp	r0, #0
 80043fa:	d1f8      	bne.n	80043ee <__gethex+0xa6>
 80043fc:	b10c      	cbz	r4, 8004402 <__gethex+0xba>
 80043fe:	1ba4      	subs	r4, r4, r6
 8004400:	00a4      	lsls	r4, r4, #2
 8004402:	7833      	ldrb	r3, [r6, #0]
 8004404:	2b50      	cmp	r3, #80	; 0x50
 8004406:	d001      	beq.n	800440c <__gethex+0xc4>
 8004408:	2b70      	cmp	r3, #112	; 0x70
 800440a:	d140      	bne.n	800448e <__gethex+0x146>
 800440c:	7873      	ldrb	r3, [r6, #1]
 800440e:	2b2b      	cmp	r3, #43	; 0x2b
 8004410:	d035      	beq.n	800447e <__gethex+0x136>
 8004412:	2b2d      	cmp	r3, #45	; 0x2d
 8004414:	d02f      	beq.n	8004476 <__gethex+0x12e>
 8004416:	1c71      	adds	r1, r6, #1
 8004418:	f04f 0900 	mov.w	r9, #0
 800441c:	7808      	ldrb	r0, [r1, #0]
 800441e:	f7ff ff7e 	bl	800431e <__hexdig_fun>
 8004422:	1e43      	subs	r3, r0, #1
 8004424:	b2db      	uxtb	r3, r3
 8004426:	2b18      	cmp	r3, #24
 8004428:	d831      	bhi.n	800448e <__gethex+0x146>
 800442a:	f1a0 0210 	sub.w	r2, r0, #16
 800442e:	f811 0f01 	ldrb.w	r0, [r1, #1]!
 8004432:	f7ff ff74 	bl	800431e <__hexdig_fun>
 8004436:	1e43      	subs	r3, r0, #1
 8004438:	b2db      	uxtb	r3, r3
 800443a:	2b18      	cmp	r3, #24
 800443c:	d922      	bls.n	8004484 <__gethex+0x13c>
 800443e:	f1b9 0f00 	cmp.w	r9, #0
 8004442:	d000      	beq.n	8004446 <__gethex+0xfe>
 8004444:	4252      	negs	r2, r2
 8004446:	4414      	add	r4, r2
 8004448:	f8ca 1000 	str.w	r1, [sl]
 800444c:	b30d      	cbz	r5, 8004492 <__gethex+0x14a>
 800444e:	f1bb 0f00 	cmp.w	fp, #0
 8004452:	bf14      	ite	ne
 8004454:	2700      	movne	r7, #0
 8004456:	2706      	moveq	r7, #6
 8004458:	4638      	mov	r0, r7
 800445a:	b00b      	add	sp, #44	; 0x2c
 800445c:	e8bd 8ff0 	ldmia.w	sp!, {r4, r5, r6, r7, r8, r9, sl, fp, pc}
 8004460:	f10b 0b01 	add.w	fp, fp, #1
 8004464:	e78a      	b.n	800437c <__gethex+0x34>
 8004466:	2500      	movs	r5, #0
 8004468:	462c      	mov	r4, r5
 800446a:	e7ae      	b.n	80043ca <__gethex+0x82>
 800446c:	463e      	mov	r6, r7
 800446e:	2501      	movs	r5, #1
 8004470:	e7c7      	b.n	8004402 <__gethex+0xba>
 8004472:	4604      	mov	r4, r0
 8004474:	e7fb      	b.n	800446e <__gethex+0x126>
 8004476:	f04f 0901 	mov.w	r9, #1
 800447a:	1cb1      	adds	r1, r6, #2
 800447c:	e7ce      	b.n	800441c <__gethex+0xd4>
 800447e:	f04f 0900 	mov.w	r9, #0
 8004482:	e7fa      	b.n	800447a <__gethex+0x132>
 8004484:	230a      	movs	r3, #10
 8004486:	fb03 0202 	mla	r2, r3, r2, r0
 800448a:	3a10      	subs	r2, #16
 800448c:	e7cf      	b.n	800442e <__gethex+0xe6>
 800448e:	4631      	mov	r1, r6
 8004490:	e7da      	b.n	8004448 <__gethex+0x100>
 8004492:	1bf3      	subs	r3, r6, r7
 8004494:	3b01      	subs	r3, #1
 8004496:	4629      	mov	r1, r5
 8004498:	2b07      	cmp	r3, #7
 800449a:	dc49      	bgt.n	8004530 <__gethex+0x1e8>
 800449c:	9802      	ldr	r0, [sp, #8]
 800449e:	f000 fa5e 	bl	800495e <_Balloc>
 80044a2:	9b01      	ldr	r3, [sp, #4]
 80044a4:	f100 0914 	add.w	r9, r0, #20
 80044a8:	f04f 0b00 	mov.w	fp, #0
 80044ac:	f1c3 0301 	rsb	r3, r3, #1
 80044b0:	4605      	mov	r5, r0
 80044b2:	f8cd 9010 	str.w	r9, [sp, #16]
 80044b6:	46da      	mov	sl, fp
 80044b8:	9308      	str	r3, [sp, #32]
 80044ba:	42b7      	cmp	r7, r6
 80044bc:	d33b      	bcc.n	8004536 <__gethex+0x1ee>
 80044be:	9804      	ldr	r0, [sp, #16]
 80044c0:	f840 ab04 	str.w	sl, [r0], #4
 80044c4:	eba0 0009 	sub.w	r0, r0, r9
 80044c8:	1080      	asrs	r0, r0, #2
 80044ca:	6128      	str	r0, [r5, #16]
 80044cc:	0147      	lsls	r7, r0, #5
 80044ce:	4650      	mov	r0, sl
 80044d0:	f000 fb09 	bl	8004ae6 <__hi0bits>
 80044d4:	f8d8 6000 	ldr.w	r6, [r8]
 80044d8:	1a3f      	subs	r7, r7, r0
 80044da:	42b7      	cmp	r7, r6
 80044dc:	dd64      	ble.n	80045a8 <__gethex+0x260>
 80044de:	1bbf      	subs	r7, r7, r6
 80044e0:	4639      	mov	r1, r7
 80044e2:	4628      	mov	r0, r5
 80044e4:	f000 fe07 	bl	80050f6 <__any_on>
 80044e8:	4682      	mov	sl, r0
 80044ea:	b178      	cbz	r0, 800450c <__gethex+0x1c4>
 80044ec:	1e7b      	subs	r3, r7, #1
 80044ee:	1159      	asrs	r1, r3, #5
 80044f0:	f003 021f 	and.w	r2, r3, #31
 80044f4:	f04f 0a01 	mov.w	sl, #1
 80044f8:	f859 1021 	ldr.w	r1, [r9, r1, lsl #2]
 80044fc:	fa0a f202 	lsl.w	r2, sl, r2
 8004500:	420a      	tst	r2, r1
 8004502:	d003      	beq.n	800450c <__gethex+0x1c4>
 8004504:	4553      	cmp	r3, sl
 8004506:	dc46      	bgt.n	8004596 <__gethex+0x24e>
 8004508:	f04f 0a02 	mov.w	sl, #2
 800450c:	4639      	mov	r1, r7
 800450e:	4628      	mov	r0, r5
 8004510:	f7ff fed0 	bl	80042b4 <rshift>
 8004514:	443c      	add	r4, r7
 8004516:	f8d8 3008 	ldr.w	r3, [r8, #8]
 800451a:	429c      	cmp	r4, r3
 800451c:	dd52      	ble.n	80045c4 <__gethex+0x27c>
 800451e:	4629      	mov	r1, r5
 8004520:	9802      	ldr	r0, [sp, #8]
 8004522:	f000 fa50 	bl	80049c6 <_Bfree>
 8004526:	9a14      	ldr	r2, [sp, #80]	; 0x50
 8004528:	2300      	movs	r3, #0
 800452a:	6013      	str	r3, [r2, #0]
 800452c:	27a3      	movs	r7, #163	; 0xa3
 800452e:	e793      	b.n	8004458 <__gethex+0x110>
 8004530:	3101      	adds	r1, #1
 8004532:	105b      	asrs	r3, r3, #1
 8004534:	e7b0      	b.n	8004498 <__gethex+0x150>
 8004536:	1e73      	subs	r3, r6, #1
 8004538:	9305      	str	r3, [sp, #20]
 800453a:	9a07      	ldr	r2, [sp, #28]
 800453c:	f816 3c01 	ldrb.w	r3, [r6, #-1]
 8004540:	4293      	cmp	r3, r2
 8004542:	d018      	beq.n	8004576 <__gethex+0x22e>
 8004544:	f1bb 0f20 	cmp.w	fp, #32
 8004548:	d107      	bne.n	800455a <__gethex+0x212>
 800454a:	9b04      	ldr	r3, [sp, #16]
 800454c:	f8c3 a000 	str.w	sl, [r3]
 8004550:	3304      	adds	r3, #4
 8004552:	f04f 0a00 	mov.w	sl, #0
 8004556:	9304      	str	r3, [sp, #16]
 8004558:	46d3      	mov	fp, sl
 800455a:	f816 0c01 	ldrb.w	r0, [r6, #-1]
 800455e:	f7ff fede 	bl	800431e <__hexdig_fun>
 8004562:	f000 000f 	and.w	r0, r0, #15
 8004566:	fa00 f00b 	lsl.w	r0, r0, fp
 800456a:	ea4a 0a00 	orr.w	sl, sl, r0
 800456e:	f10b 0b04 	add.w	fp, fp, #4
 8004572:	9b05      	ldr	r3, [sp, #20]
 8004574:	e00d      	b.n	8004592 <__gethex+0x24a>
 8004576:	9b05      	ldr	r3, [sp, #20]
 8004578:	9a08      	ldr	r2, [sp, #32]
 800457a:	4413      	add	r3, r2
 800457c:	429f      	cmp	r7, r3
 800457e:	d8e1      	bhi.n	8004544 <__gethex+0x1fc>
 8004580:	4618      	mov	r0, r3
 8004582:	9a01      	ldr	r2, [sp, #4]
 8004584:	9903      	ldr	r1, [sp, #12]
 8004586:	9309      	str	r3, [sp, #36]	; 0x24
 8004588:	f000 fff0 	bl	800556c <strncmp>
 800458c:	9b09      	ldr	r3, [sp, #36]	; 0x24
 800458e:	2800      	cmp	r0, #0
 8004590:	d1d8      	bne.n	8004544 <__gethex+0x1fc>
 8004592:	461e      	mov	r6, r3
 8004594:	e791      	b.n	80044ba <__gethex+0x172>
 8004596:	1eb9      	subs	r1, r7, #2
 8004598:	4628      	mov	r0, r5
 800459a:	f000 fdac 	bl	80050f6 <__any_on>
 800459e:	2800      	cmp	r0, #0
 80045a0:	d0b2      	beq.n	8004508 <__gethex+0x1c0>
 80045a2:	f04f 0a03 	mov.w	sl, #3
 80045a6:	e7b1      	b.n	800450c <__gethex+0x1c4>
 80045a8:	da09      	bge.n	80045be <__gethex+0x276>
 80045aa:	1bf7      	subs	r7, r6, r7
 80045ac:	4629      	mov	r1, r5
 80045ae:	463a      	mov	r2, r7
 80045b0:	9802      	ldr	r0, [sp, #8]
 80045b2:	f000 fbcb 	bl	8004d4c <__lshift>
 80045b6:	1be4      	subs	r4, r4, r7
 80045b8:	4605      	mov	r5, r0
 80045ba:	f100 0914 	add.w	r9, r0, #20
 80045be:	f04f 0a00 	mov.w	sl, #0
 80045c2:	e7a8      	b.n	8004516 <__gethex+0x1ce>
 80045c4:	f8d8 0004 	ldr.w	r0, [r8, #4]
 80045c8:	4284      	cmp	r4, r0
 80045ca:	da6a      	bge.n	80046a2 <__gethex+0x35a>
 80045cc:	1b04      	subs	r4, r0, r4
 80045ce:	42a6      	cmp	r6, r4
 80045d0:	dc2e      	bgt.n	8004630 <__gethex+0x2e8>
 80045d2:	f8d8 300c 	ldr.w	r3, [r8, #12]
 80045d6:	2b02      	cmp	r3, #2
 80045d8:	d022      	beq.n	8004620 <__gethex+0x2d8>
 80045da:	2b03      	cmp	r3, #3
 80045dc:	d024      	beq.n	8004628 <__gethex+0x2e0>
 80045de:	2b01      	cmp	r3, #1
 80045e0:	d115      	bne.n	800460e <__gethex+0x2c6>
 80045e2:	42a6      	cmp	r6, r4
 80045e4:	d113      	bne.n	800460e <__gethex+0x2c6>
 80045e6:	2e01      	cmp	r6, #1
 80045e8:	dc0b      	bgt.n	8004602 <__gethex+0x2ba>
 80045ea:	9a06      	ldr	r2, [sp, #24]
 80045ec:	f8d8 3004 	ldr.w	r3, [r8, #4]
 80045f0:	6013      	str	r3, [r2, #0]
 80045f2:	2301      	movs	r3, #1
 80045f4:	612b      	str	r3, [r5, #16]
 80045f6:	f8c9 3000 	str.w	r3, [r9]
 80045fa:	9b14      	ldr	r3, [sp, #80]	; 0x50
 80045fc:	2762      	movs	r7, #98	; 0x62
 80045fe:	601d      	str	r5, [r3, #0]
 8004600:	e72a      	b.n	8004458 <__gethex+0x110>
 8004602:	1e71      	subs	r1, r6, #1
 8004604:	4628      	mov	r0, r5
 8004606:	f000 fd76 	bl	80050f6 <__any_on>
 800460a:	2800      	cmp	r0, #0
 800460c:	d1ed      	bne.n	80045ea <__gethex+0x2a2>
 800460e:	4629      	mov	r1, r5
 8004610:	9802      	ldr	r0, [sp, #8]
 8004612:	f000 f9d8 	bl	80049c6 <_Bfree>
 8004616:	9a14      	ldr	r2, [sp, #80]	; 0x50
 8004618:	2300      	movs	r3, #0
 800461a:	6013      	str	r3, [r2, #0]
 800461c:	2750      	movs	r7, #80	; 0x50
 800461e:	e71b      	b.n	8004458 <__gethex+0x110>
 8004620:	9b15      	ldr	r3, [sp, #84]	; 0x54
 8004622:	2b00      	cmp	r3, #0
 8004624:	d0e1      	beq.n	80045ea <__gethex+0x2a2>
 8004626:	e7f2      	b.n	800460e <__gethex+0x2c6>
 8004628:	9b15      	ldr	r3, [sp, #84]	; 0x54
 800462a:	2b00      	cmp	r3, #0
 800462c:	d1dd      	bne.n	80045ea <__gethex+0x2a2>
 800462e:	e7ee      	b.n	800460e <__gethex+0x2c6>
 8004630:	1e67      	subs	r7, r4, #1
 8004632:	f1ba 0f00 	cmp.w	sl, #0
 8004636:	d131      	bne.n	800469c <__gethex+0x354>
 8004638:	b127      	cbz	r7, 8004644 <__gethex+0x2fc>
 800463a:	4639      	mov	r1, r7
 800463c:	4628      	mov	r0, r5
 800463e:	f000 fd5a 	bl	80050f6 <__any_on>
 8004642:	4682      	mov	sl, r0
 8004644:	117a      	asrs	r2, r7, #5
 8004646:	2301      	movs	r3, #1
 8004648:	f007 071f 	and.w	r7, r7, #31
 800464c:	fa03 f707 	lsl.w	r7, r3, r7
 8004650:	f859 3022 	ldr.w	r3, [r9, r2, lsl #2]
 8004654:	4621      	mov	r1, r4
 8004656:	421f      	tst	r7, r3
 8004658:	4628      	mov	r0, r5
 800465a:	bf18      	it	ne
 800465c:	f04a 0a02 	orrne.w	sl, sl, #2
 8004660:	1b36      	subs	r6, r6, r4
 8004662:	f7ff fe27 	bl	80042b4 <rshift>
 8004666:	f8d8 4004 	ldr.w	r4, [r8, #4]
 800466a:	2702      	movs	r7, #2
 800466c:	f1ba 0f00 	cmp.w	sl, #0
 8004670:	d045      	beq.n	80046fe <__gethex+0x3b6>
 8004672:	f8d8 300c 	ldr.w	r3, [r8, #12]
 8004676:	2b02      	cmp	r3, #2
 8004678:	d015      	beq.n	80046a6 <__gethex+0x35e>
 800467a:	2b03      	cmp	r3, #3
 800467c:	d017      	beq.n	80046ae <__gethex+0x366>
 800467e:	2b01      	cmp	r3, #1
 8004680:	d109      	bne.n	8004696 <__gethex+0x34e>
 8004682:	f01a 0f02 	tst.w	sl, #2
 8004686:	d006      	beq.n	8004696 <__gethex+0x34e>
 8004688:	f8d9 3000 	ldr.w	r3, [r9]
 800468c:	ea4a 0a03 	orr.w	sl, sl, r3
 8004690:	f01a 0f01 	tst.w	sl, #1
 8004694:	d10e      	bne.n	80046b4 <__gethex+0x36c>
 8004696:	f047 0710 	orr.w	r7, r7, #16
 800469a:	e030      	b.n	80046fe <__gethex+0x3b6>
 800469c:	f04f 0a01 	mov.w	sl, #1
 80046a0:	e7d0      	b.n	8004644 <__gethex+0x2fc>
 80046a2:	2701      	movs	r7, #1
 80046a4:	e7e2      	b.n	800466c <__gethex+0x324>
 80046a6:	9b15      	ldr	r3, [sp, #84]	; 0x54
 80046a8:	f1c3 0301 	rsb	r3, r3, #1
 80046ac:	9315      	str	r3, [sp, #84]	; 0x54
 80046ae:	9b15      	ldr	r3, [sp, #84]	; 0x54
 80046b0:	2b00      	cmp	r3, #0
 80046b2:	d0f0      	beq.n	8004696 <__gethex+0x34e>
 80046b4:	f8d5 9010 	ldr.w	r9, [r5, #16]
 80046b8:	f105 0314 	add.w	r3, r5, #20
 80046bc:	ea4f 0a89 	mov.w	sl, r9, lsl #2
 80046c0:	eb03 010a 	add.w	r1, r3, sl
 80046c4:	2000      	movs	r0, #0
 80046c6:	681a      	ldr	r2, [r3, #0]
 80046c8:	f1b2 3fff 	cmp.w	r2, #4294967295
 80046cc:	d01c      	beq.n	8004708 <__gethex+0x3c0>
 80046ce:	3201      	adds	r2, #1
 80046d0:	601a      	str	r2, [r3, #0]
 80046d2:	2f02      	cmp	r7, #2
 80046d4:	f105 0314 	add.w	r3, r5, #20
 80046d8:	d138      	bne.n	800474c <__gethex+0x404>
 80046da:	f8d8 2000 	ldr.w	r2, [r8]
 80046de:	3a01      	subs	r2, #1
 80046e0:	4296      	cmp	r6, r2
 80046e2:	d10a      	bne.n	80046fa <__gethex+0x3b2>
 80046e4:	1171      	asrs	r1, r6, #5
 80046e6:	2201      	movs	r2, #1
 80046e8:	f006 061f 	and.w	r6, r6, #31
 80046ec:	f853 3021 	ldr.w	r3, [r3, r1, lsl #2]
 80046f0:	fa02 f606 	lsl.w	r6, r2, r6
 80046f4:	421e      	tst	r6, r3
 80046f6:	bf18      	it	ne
 80046f8:	4617      	movne	r7, r2
 80046fa:	f047 0720 	orr.w	r7, r7, #32
 80046fe:	9b14      	ldr	r3, [sp, #80]	; 0x50
 8004700:	601d      	str	r5, [r3, #0]
 8004702:	9b06      	ldr	r3, [sp, #24]
 8004704:	601c      	str	r4, [r3, #0]
 8004706:	e6a7      	b.n	8004458 <__gethex+0x110>
 8004708:	f843 0b04 	str.w	r0, [r3], #4
 800470c:	4299      	cmp	r1, r3
 800470e:	d8da      	bhi.n	80046c6 <__gethex+0x37e>
 8004710:	68ab      	ldr	r3, [r5, #8]
 8004712:	4599      	cmp	r9, r3
 8004714:	db12      	blt.n	800473c <__gethex+0x3f4>
 8004716:	6869      	ldr	r1, [r5, #4]
 8004718:	9802      	ldr	r0, [sp, #8]
 800471a:	3101      	adds	r1, #1
 800471c:	f000 f91f 	bl	800495e <_Balloc>
 8004720:	692a      	ldr	r2, [r5, #16]
 8004722:	3202      	adds	r2, #2
 8004724:	f105 010c 	add.w	r1, r5, #12
 8004728:	4683      	mov	fp, r0
 800472a:	0092      	lsls	r2, r2, #2
 800472c:	300c      	adds	r0, #12
 800472e:	f000 f90b 	bl	8004948 <memcpy>
 8004732:	4629      	mov	r1, r5
 8004734:	9802      	ldr	r0, [sp, #8]
 8004736:	f000 f946 	bl	80049c6 <_Bfree>
 800473a:	465d      	mov	r5, fp
 800473c:	692b      	ldr	r3, [r5, #16]
 800473e:	1c5a      	adds	r2, r3, #1
 8004740:	eb05 0383 	add.w	r3, r5, r3, lsl #2
 8004744:	612a      	str	r2, [r5, #16]
 8004746:	2201      	movs	r2, #1
 8004748:	615a      	str	r2, [r3, #20]
 800474a:	e7c2      	b.n	80046d2 <__gethex+0x38a>
 800474c:	692a      	ldr	r2, [r5, #16]
 800474e:	4591      	cmp	r9, r2
 8004750:	da0b      	bge.n	800476a <__gethex+0x422>
 8004752:	2101      	movs	r1, #1
 8004754:	4628      	mov	r0, r5
 8004756:	f7ff fdad 	bl	80042b4 <rshift>
 800475a:	f8d8 3008 	ldr.w	r3, [r8, #8]
 800475e:	3401      	adds	r4, #1
 8004760:	429c      	cmp	r4, r3
 8004762:	f73f aedc 	bgt.w	800451e <__gethex+0x1d6>
 8004766:	2701      	movs	r7, #1
 8004768:	e7c7      	b.n	80046fa <__gethex+0x3b2>
 800476a:	f016 061f 	ands.w	r6, r6, #31
 800476e:	d0fa      	beq.n	8004766 <__gethex+0x41e>
 8004770:	449a      	add	sl, r3
 8004772:	f1c6 0620 	rsb	r6, r6, #32
 8004776:	f85a 0c04 	ldr.w	r0, [sl, #-4]
 800477a:	f000 f9b4 	bl	8004ae6 <__hi0bits>
 800477e:	42b0      	cmp	r0, r6
 8004780:	dbe7      	blt.n	8004752 <__gethex+0x40a>
 8004782:	e7f0      	b.n	8004766 <__gethex+0x41e>

08004784 <L_shift>:
 8004784:	f1c2 0208 	rsb	r2, r2, #8
 8004788:	0092      	lsls	r2, r2, #2
 800478a:	b570      	push	{r4, r5, r6, lr}
 800478c:	f1c2 0620 	rsb	r6, r2, #32
 8004790:	6843      	ldr	r3, [r0, #4]
 8004792:	6804      	ldr	r4, [r0, #0]
 8004794:	fa03 f506 	lsl.w	r5, r3, r6
 8004798:	432c      	orrs	r4, r5
 800479a:	40d3      	lsrs	r3, r2
 800479c:	6004      	str	r4, [r0, #0]
 800479e:	f840 3f04 	str.w	r3, [r0, #4]!
 80047a2:	4288      	cmp	r0, r1
 80047a4:	d3f4      	bcc.n	8004790 <L_shift+0xc>
 80047a6:	bd70      	pop	{r4, r5, r6, pc}

080047a8 <__match>:
 80047a8:	b530      	push	{r4, r5, lr}
 80047aa:	6803      	ldr	r3, [r0, #0]
 80047ac:	f811 4b01 	ldrb.w	r4, [r1], #1
 80047b0:	3301      	adds	r3, #1
 80047b2:	b914      	cbnz	r4, 80047ba <__match+0x12>
 80047b4:	6003      	str	r3, [r0, #0]
 80047b6:	2001      	movs	r0, #1
 80047b8:	bd30      	pop	{r4, r5, pc}
 80047ba:	781a      	ldrb	r2, [r3, #0]
 80047bc:	f1a2 0541 	sub.w	r5, r2, #65	; 0x41
 80047c0:	2d19      	cmp	r5, #25
 80047c2:	bf98      	it	ls
 80047c4:	3220      	addls	r2, #32
 80047c6:	42a2      	cmp	r2, r4
 80047c8:	d0f0      	beq.n	80047ac <__match+0x4>
 80047ca:	2000      	movs	r0, #0
 80047cc:	bd30      	pop	{r4, r5, pc}

080047ce <__hexnan>:
 80047ce:	e92d 4ff0 	stmdb	sp!, {r4, r5, r6, r7, r8, r9, sl, fp, lr}
 80047d2:	680b      	ldr	r3, [r1, #0]
 80047d4:	6801      	ldr	r1, [r0, #0]
 80047d6:	115f      	asrs	r7, r3, #5
 80047d8:	eb02 0787 	add.w	r7, r2, r7, lsl #2
 80047dc:	f013 031f 	ands.w	r3, r3, #31
 80047e0:	b087      	sub	sp, #28
 80047e2:	bf18      	it	ne
 80047e4:	3704      	addne	r7, #4
 80047e6:	2500      	movs	r5, #0
 80047e8:	1f3e      	subs	r6, r7, #4
 80047ea:	4682      	mov	sl, r0
 80047ec:	4690      	mov	r8, r2
 80047ee:	9302      	str	r3, [sp, #8]
 80047f0:	f847 5c04 	str.w	r5, [r7, #-4]
 80047f4:	46b1      	mov	r9, r6
 80047f6:	4634      	mov	r4, r6
 80047f8:	9501      	str	r5, [sp, #4]
 80047fa:	46ab      	mov	fp, r5
 80047fc:	784a      	ldrb	r2, [r1, #1]
 80047fe:	1c4b      	adds	r3, r1, #1
 8004800:	9303      	str	r3, [sp, #12]
 8004802:	b342      	cbz	r2, 8004856 <__hexnan+0x88>
 8004804:	4610      	mov	r0, r2
 8004806:	9105      	str	r1, [sp, #20]
 8004808:	9204      	str	r2, [sp, #16]
 800480a:	f7ff fd88 	bl	800431e <__hexdig_fun>
 800480e:	2800      	cmp	r0, #0
 8004810:	d143      	bne.n	800489a <__hexnan+0xcc>
 8004812:	9a04      	ldr	r2, [sp, #16]
 8004814:	9905      	ldr	r1, [sp, #20]
 8004816:	2a20      	cmp	r2, #32
 8004818:	d818      	bhi.n	800484c <__hexnan+0x7e>
 800481a:	9b01      	ldr	r3, [sp, #4]
 800481c:	459b      	cmp	fp, r3
 800481e:	dd13      	ble.n	8004848 <__hexnan+0x7a>
 8004820:	454c      	cmp	r4, r9
 8004822:	d206      	bcs.n	8004832 <__hexnan+0x64>
 8004824:	2d07      	cmp	r5, #7
 8004826:	dc04      	bgt.n	8004832 <__hexnan+0x64>
 8004828:	462a      	mov	r2, r5
 800482a:	4649      	mov	r1, r9
 800482c:	4620      	mov	r0, r4
 800482e:	f7ff ffa9 	bl	8004784 <L_shift>
 8004832:	4544      	cmp	r4, r8
 8004834:	d944      	bls.n	80048c0 <__hexnan+0xf2>
 8004836:	2300      	movs	r3, #0
 8004838:	f1a4 0904 	sub.w	r9, r4, #4
 800483c:	f844 3c04 	str.w	r3, [r4, #-4]
 8004840:	f8cd b004 	str.w	fp, [sp, #4]
 8004844:	464c      	mov	r4, r9
 8004846:	461d      	mov	r5, r3
 8004848:	9903      	ldr	r1, [sp, #12]
 800484a:	e7d7      	b.n	80047fc <__hexnan+0x2e>
 800484c:	2a29      	cmp	r2, #41	; 0x29
 800484e:	d14a      	bne.n	80048e6 <__hexnan+0x118>
 8004850:	3102      	adds	r1, #2
 8004852:	f8ca 1000 	str.w	r1, [sl]
 8004856:	f1bb 0f00 	cmp.w	fp, #0
 800485a:	d044      	beq.n	80048e6 <__hexnan+0x118>
 800485c:	454c      	cmp	r4, r9
 800485e:	d206      	bcs.n	800486e <__hexnan+0xa0>
 8004860:	2d07      	cmp	r5, #7
 8004862:	dc04      	bgt.n	800486e <__hexnan+0xa0>
 8004864:	462a      	mov	r2, r5
 8004866:	4649      	mov	r1, r9
 8004868:	4620      	mov	r0, r4
 800486a:	f7ff ff8b 	bl	8004784 <L_shift>
 800486e:	4544      	cmp	r4, r8
 8004870:	d928      	bls.n	80048c4 <__hexnan+0xf6>
 8004872:	4643      	mov	r3, r8
 8004874:	f854 2b04 	ldr.w	r2, [r4], #4
 8004878:	f843 2b04 	str.w	r2, [r3], #4
 800487c:	42a6      	cmp	r6, r4
 800487e:	d2f9      	bcs.n	8004874 <__hexnan+0xa6>
 8004880:	2200      	movs	r2, #0
 8004882:	f843 2b04 	str.w	r2, [r3], #4
 8004886:	429e      	cmp	r6, r3
 8004888:	d2fb      	bcs.n	8004882 <__hexnan+0xb4>
 800488a:	6833      	ldr	r3, [r6, #0]
 800488c:	b91b      	cbnz	r3, 8004896 <__hexnan+0xc8>
 800488e:	4546      	cmp	r6, r8
 8004890:	d127      	bne.n	80048e2 <__hexnan+0x114>
 8004892:	2301      	movs	r3, #1
 8004894:	6033      	str	r3, [r6, #0]
 8004896:	2005      	movs	r0, #5
 8004898:	e026      	b.n	80048e8 <__hexnan+0x11a>
 800489a:	3501      	adds	r5, #1
 800489c:	2d08      	cmp	r5, #8
 800489e:	f10b 0b01 	add.w	fp, fp, #1
 80048a2:	dd06      	ble.n	80048b2 <__hexnan+0xe4>
 80048a4:	4544      	cmp	r4, r8
 80048a6:	d9cf      	bls.n	8004848 <__hexnan+0x7a>
 80048a8:	2300      	movs	r3, #0
 80048aa:	f844 3c04 	str.w	r3, [r4, #-4]
 80048ae:	2501      	movs	r5, #1
 80048b0:	3c04      	subs	r4, #4
 80048b2:	6822      	ldr	r2, [r4, #0]
 80048b4:	f000 000f 	and.w	r0, r0, #15
 80048b8:	ea40 1002 	orr.w	r0, r0, r2, lsl #4
 80048bc:	6020      	str	r0, [r4, #0]
 80048be:	e7c3      	b.n	8004848 <__hexnan+0x7a>
 80048c0:	2508      	movs	r5, #8
 80048c2:	e7c1      	b.n	8004848 <__hexnan+0x7a>
 80048c4:	9b02      	ldr	r3, [sp, #8]
 80048c6:	2b00      	cmp	r3, #0
 80048c8:	d0df      	beq.n	800488a <__hexnan+0xbc>
 80048ca:	f04f 32ff 	mov.w	r2, #4294967295
 80048ce:	f1c3 0320 	rsb	r3, r3, #32
 80048d2:	fa22 f303 	lsr.w	r3, r2, r3
 80048d6:	f857 2c04 	ldr.w	r2, [r7, #-4]
 80048da:	401a      	ands	r2, r3
 80048dc:	f847 2c04 	str.w	r2, [r7, #-4]
 80048e0:	e7d3      	b.n	800488a <__hexnan+0xbc>
 80048e2:	3e04      	subs	r6, #4
 80048e4:	e7d1      	b.n	800488a <__hexnan+0xbc>
 80048e6:	2004      	movs	r0, #4
 80048e8:	b007      	add	sp, #28
 80048ea:	e8bd 8ff0 	ldmia.w	sp!, {r4, r5, r6, r7, r8, r9, sl, fp, pc}

080048ee <__locale_ctype_ptr_l>:
 80048ee:	f8d0 00ec 	ldr.w	r0, [r0, #236]	; 0xec
 80048f2:	4770      	bx	lr

080048f4 <__localeconv_l>:
 80048f4:	30f0      	adds	r0, #240	; 0xf0
 80048f6:	4770      	bx	lr

080048f8 <_localeconv_r>:
 80048f8:	4b04      	ldr	r3, [pc, #16]	; (800490c <_localeconv_r+0x14>)
 80048fa:	681b      	ldr	r3, [r3, #0]
 80048fc:	6a18      	ldr	r0, [r3, #32]
 80048fe:	4b04      	ldr	r3, [pc, #16]	; (8004910 <_localeconv_r+0x18>)
 8004900:	2800      	cmp	r0, #0
 8004902:	bf08      	it	eq
 8004904:	4618      	moveq	r0, r3
 8004906:	30f0      	adds	r0, #240	; 0xf0
 8004908:	4770      	bx	lr
 800490a:	bf00      	nop
 800490c:	20000060 	.word	0x20000060
 8004910:	200000c4 	.word	0x200000c4

08004914 <malloc>:
 8004914:	4b02      	ldr	r3, [pc, #8]	; (8004920 <malloc+0xc>)
 8004916:	4601      	mov	r1, r0
 8004918:	6818      	ldr	r0, [r3, #0]
 800491a:	f000 bc69 	b.w	80051f0 <_malloc_r>
 800491e:	bf00      	nop
 8004920:	20000060 	.word	0x20000060

08004924 <__ascii_mbtowc>:
 8004924:	b082      	sub	sp, #8
 8004926:	b901      	cbnz	r1, 800492a <__ascii_mbtowc+0x6>
 8004928:	a901      	add	r1, sp, #4
 800492a:	b142      	cbz	r2, 800493e <__ascii_mbtowc+0x1a>
 800492c:	b14b      	cbz	r3, 8004942 <__ascii_mbtowc+0x1e>
 800492e:	7813      	ldrb	r3, [r2, #0]
 8004930:	600b      	str	r3, [r1, #0]
 8004932:	7812      	ldrb	r2, [r2, #0]
 8004934:	1c10      	adds	r0, r2, #0
 8004936:	bf18      	it	ne
 8004938:	2001      	movne	r0, #1
 800493a:	b002      	add	sp, #8
 800493c:	4770      	bx	lr
 800493e:	4610      	mov	r0, r2
 8004940:	e7fb      	b.n	800493a <__ascii_mbtowc+0x16>
 8004942:	f06f 0001 	mvn.w	r0, #1
 8004946:	e7f8      	b.n	800493a <__ascii_mbtowc+0x16>

08004948 <memcpy>:
 8004948:	b510      	push	{r4, lr}
 800494a:	1e43      	subs	r3, r0, #1
 800494c:	440a      	add	r2, r1
 800494e:	4291      	cmp	r1, r2
 8004950:	d100      	bne.n	8004954 <memcpy+0xc>
 8004952:	bd10      	pop	{r4, pc}
 8004954:	f811 4b01 	ldrb.w	r4, [r1], #1
 8004958:	f803 4f01 	strb.w	r4, [r3, #1]!
 800495c:	e7f7      	b.n	800494e <memcpy+0x6>

0800495e <_Balloc>:
 800495e:	b570      	push	{r4, r5, r6, lr}
 8004960:	6a45      	ldr	r5, [r0, #36]	; 0x24
 8004962:	4604      	mov	r4, r0
 8004964:	460e      	mov	r6, r1
 8004966:	b93d      	cbnz	r5, 8004978 <_Balloc+0x1a>
 8004968:	2010      	movs	r0, #16
 800496a:	f7ff ffd3 	bl	8004914 <malloc>
 800496e:	6260      	str	r0, [r4, #36]	; 0x24
 8004970:	6045      	str	r5, [r0, #4]
 8004972:	6085      	str	r5, [r0, #8]
 8004974:	6005      	str	r5, [r0, #0]
 8004976:	60c5      	str	r5, [r0, #12]
 8004978:	6a65      	ldr	r5, [r4, #36]	; 0x24
 800497a:	68eb      	ldr	r3, [r5, #12]
 800497c:	b183      	cbz	r3, 80049a0 <_Balloc+0x42>
 800497e:	6a63      	ldr	r3, [r4, #36]	; 0x24
 8004980:	68db      	ldr	r3, [r3, #12]
 8004982:	f853 0026 	ldr.w	r0, [r3, r6, lsl #2]
 8004986:	b9b8      	cbnz	r0, 80049b8 <_Balloc+0x5a>
 8004988:	2101      	movs	r1, #1
 800498a:	fa01 f506 	lsl.w	r5, r1, r6
 800498e:	1d6a      	adds	r2, r5, #5
 8004990:	0092      	lsls	r2, r2, #2
 8004992:	4620      	mov	r0, r4
 8004994:	f000 fbd0 	bl	8005138 <_calloc_r>
 8004998:	b160      	cbz	r0, 80049b4 <_Balloc+0x56>
 800499a:	6046      	str	r6, [r0, #4]
 800499c:	6085      	str	r5, [r0, #8]
 800499e:	e00e      	b.n	80049be <_Balloc+0x60>
 80049a0:	2221      	movs	r2, #33	; 0x21
 80049a2:	2104      	movs	r1, #4
 80049a4:	4620      	mov	r0, r4
 80049a6:	f000 fbc7 	bl	8005138 <_calloc_r>
 80049aa:	6a63      	ldr	r3, [r4, #36]	; 0x24
 80049ac:	60e8      	str	r0, [r5, #12]
 80049ae:	68db      	ldr	r3, [r3, #12]
 80049b0:	2b00      	cmp	r3, #0
 80049b2:	d1e4      	bne.n	800497e <_Balloc+0x20>
 80049b4:	2000      	movs	r0, #0
 80049b6:	bd70      	pop	{r4, r5, r6, pc}
 80049b8:	6802      	ldr	r2, [r0, #0]
 80049ba:	f843 2026 	str.w	r2, [r3, r6, lsl #2]
 80049be:	2300      	movs	r3, #0
 80049c0:	6103      	str	r3, [r0, #16]
 80049c2:	60c3      	str	r3, [r0, #12]
 80049c4:	bd70      	pop	{r4, r5, r6, pc}

080049c6 <_Bfree>:
 80049c6:	b570      	push	{r4, r5, r6, lr}
 80049c8:	6a44      	ldr	r4, [r0, #36]	; 0x24
 80049ca:	4606      	mov	r6, r0
 80049cc:	460d      	mov	r5, r1
 80049ce:	b93c      	cbnz	r4, 80049e0 <_Bfree+0x1a>
 80049d0:	2010      	movs	r0, #16
 80049d2:	f7ff ff9f 	bl	8004914 <malloc>
 80049d6:	6270      	str	r0, [r6, #36]	; 0x24
 80049d8:	6044      	str	r4, [r0, #4]
 80049da:	6084      	str	r4, [r0, #8]
 80049dc:	6004      	str	r4, [r0, #0]
 80049de:	60c4      	str	r4, [r0, #12]
 80049e0:	b13d      	cbz	r5, 80049f2 <_Bfree+0x2c>
 80049e2:	6a73      	ldr	r3, [r6, #36]	; 0x24
 80049e4:	686a      	ldr	r2, [r5, #4]
 80049e6:	68db      	ldr	r3, [r3, #12]
 80049e8:	f853 1022 	ldr.w	r1, [r3, r2, lsl #2]
 80049ec:	6029      	str	r1, [r5, #0]
 80049ee:	f843 5022 	str.w	r5, [r3, r2, lsl #2]
 80049f2:	bd70      	pop	{r4, r5, r6, pc}

080049f4 <__multadd>:
 80049f4:	e92d 41f0 	stmdb	sp!, {r4, r5, r6, r7, r8, lr}
 80049f8:	690d      	ldr	r5, [r1, #16]
 80049fa:	461f      	mov	r7, r3
 80049fc:	4606      	mov	r6, r0
 80049fe:	460c      	mov	r4, r1
 8004a00:	f101 0e14 	add.w	lr, r1, #20
 8004a04:	2300      	movs	r3, #0
 8004a06:	f8de 0000 	ldr.w	r0, [lr]
 8004a0a:	b281      	uxth	r1, r0
 8004a0c:	fb02 7101 	mla	r1, r2, r1, r7
 8004a10:	0c0f      	lsrs	r7, r1, #16
 8004a12:	0c00      	lsrs	r0, r0, #16
 8004a14:	fb02 7000 	mla	r0, r2, r0, r7
 8004a18:	b289      	uxth	r1, r1
 8004a1a:	3301      	adds	r3, #1
 8004a1c:	eb01 4100 	add.w	r1, r1, r0, lsl #16
 8004a20:	429d      	cmp	r5, r3
 8004a22:	ea4f 4710 	mov.w	r7, r0, lsr #16
 8004a26:	f84e 1b04 	str.w	r1, [lr], #4
 8004a2a:	dcec      	bgt.n	8004a06 <__multadd+0x12>
 8004a2c:	b1d7      	cbz	r7, 8004a64 <__multadd+0x70>
 8004a2e:	68a3      	ldr	r3, [r4, #8]
 8004a30:	429d      	cmp	r5, r3
 8004a32:	db12      	blt.n	8004a5a <__multadd+0x66>
 8004a34:	6861      	ldr	r1, [r4, #4]
 8004a36:	4630      	mov	r0, r6
 8004a38:	3101      	adds	r1, #1
 8004a3a:	f7ff ff90 	bl	800495e <_Balloc>
 8004a3e:	6922      	ldr	r2, [r4, #16]
 8004a40:	3202      	adds	r2, #2
 8004a42:	f104 010c 	add.w	r1, r4, #12
 8004a46:	4680      	mov	r8, r0
 8004a48:	0092      	lsls	r2, r2, #2
 8004a4a:	300c      	adds	r0, #12
 8004a4c:	f7ff ff7c 	bl	8004948 <memcpy>
 8004a50:	4621      	mov	r1, r4
 8004a52:	4630      	mov	r0, r6
 8004a54:	f7ff ffb7 	bl	80049c6 <_Bfree>
 8004a58:	4644      	mov	r4, r8
 8004a5a:	eb04 0385 	add.w	r3, r4, r5, lsl #2
 8004a5e:	3501      	adds	r5, #1
 8004a60:	615f      	str	r7, [r3, #20]
 8004a62:	6125      	str	r5, [r4, #16]
 8004a64:	4620      	mov	r0, r4
 8004a66:	e8bd 81f0 	ldmia.w	sp!, {r4, r5, r6, r7, r8, pc}

08004a6a <__s2b>:
 8004a6a:	e92d 43f8 	stmdb	sp!, {r3, r4, r5, r6, r7, r8, r9, lr}
 8004a6e:	460c      	mov	r4, r1
 8004a70:	4615      	mov	r5, r2
 8004a72:	461f      	mov	r7, r3
 8004a74:	2209      	movs	r2, #9
 8004a76:	3308      	adds	r3, #8
 8004a78:	4606      	mov	r6, r0
 8004a7a:	fb93 f3f2 	sdiv	r3, r3, r2
 8004a7e:	2100      	movs	r1, #0
 8004a80:	2201      	movs	r2, #1
 8004a82:	429a      	cmp	r2, r3
 8004a84:	db20      	blt.n	8004ac8 <__s2b+0x5e>
 8004a86:	4630      	mov	r0, r6
 8004a88:	f7ff ff69 	bl	800495e <_Balloc>
 8004a8c:	9b08      	ldr	r3, [sp, #32]
 8004a8e:	6143      	str	r3, [r0, #20]
 8004a90:	2d09      	cmp	r5, #9
 8004a92:	f04f 0301 	mov.w	r3, #1
 8004a96:	6103      	str	r3, [r0, #16]
 8004a98:	dd19      	ble.n	8004ace <__s2b+0x64>
 8004a9a:	f104 0909 	add.w	r9, r4, #9
 8004a9e:	46c8      	mov	r8, r9
 8004aa0:	442c      	add	r4, r5
 8004aa2:	f818 3b01 	ldrb.w	r3, [r8], #1
 8004aa6:	4601      	mov	r1, r0
 8004aa8:	3b30      	subs	r3, #48	; 0x30
 8004aaa:	220a      	movs	r2, #10
 8004aac:	4630      	mov	r0, r6
 8004aae:	f7ff ffa1 	bl	80049f4 <__multadd>
 8004ab2:	45a0      	cmp	r8, r4
 8004ab4:	d1f5      	bne.n	8004aa2 <__s2b+0x38>
 8004ab6:	f1a5 0408 	sub.w	r4, r5, #8
 8004aba:	444c      	add	r4, r9
 8004abc:	1b2d      	subs	r5, r5, r4
 8004abe:	1963      	adds	r3, r4, r5
 8004ac0:	42bb      	cmp	r3, r7
 8004ac2:	db07      	blt.n	8004ad4 <__s2b+0x6a>
 8004ac4:	e8bd 83f8 	ldmia.w	sp!, {r3, r4, r5, r6, r7, r8, r9, pc}
 8004ac8:	0052      	lsls	r2, r2, #1
 8004aca:	3101      	adds	r1, #1
 8004acc:	e7d9      	b.n	8004a82 <__s2b+0x18>
 8004ace:	340a      	adds	r4, #10
 8004ad0:	2509      	movs	r5, #9
 8004ad2:	e7f3      	b.n	8004abc <__s2b+0x52>
 8004ad4:	f814 3b01 	ldrb.w	r3, [r4], #1
 8004ad8:	4601      	mov	r1, r0
 8004ada:	3b30      	subs	r3, #48	; 0x30
 8004adc:	220a      	movs	r2, #10
 8004ade:	4630      	mov	r0, r6
 8004ae0:	f7ff ff88 	bl	80049f4 <__multadd>
 8004ae4:	e7eb      	b.n	8004abe <__s2b+0x54>

08004ae6 <__hi0bits>:
 8004ae6:	0c02      	lsrs	r2, r0, #16
 8004ae8:	0412      	lsls	r2, r2, #16
 8004aea:	4603      	mov	r3, r0
 8004aec:	b9b2      	cbnz	r2, 8004b1c <__hi0bits+0x36>
 8004aee:	0403      	lsls	r3, r0, #16
 8004af0:	2010      	movs	r0, #16
 8004af2:	f013 4f7f 	tst.w	r3, #4278190080	; 0xff000000
 8004af6:	bf04      	itt	eq
 8004af8:	021b      	lsleq	r3, r3, #8
 8004afa:	3008      	addeq	r0, #8
 8004afc:	f013 4f70 	tst.w	r3, #4026531840	; 0xf0000000
 8004b00:	bf04      	itt	eq
 8004b02:	011b      	lsleq	r3, r3, #4
 8004b04:	3004      	addeq	r0, #4
 8004b06:	f013 4f40 	tst.w	r3, #3221225472	; 0xc0000000
 8004b0a:	bf04      	itt	eq
 8004b0c:	009b      	lsleq	r3, r3, #2
 8004b0e:	3002      	addeq	r0, #2
 8004b10:	2b00      	cmp	r3, #0
 8004b12:	db06      	blt.n	8004b22 <__hi0bits+0x3c>
 8004b14:	005b      	lsls	r3, r3, #1
 8004b16:	d503      	bpl.n	8004b20 <__hi0bits+0x3a>
 8004b18:	3001      	adds	r0, #1
 8004b1a:	4770      	bx	lr
 8004b1c:	2000      	movs	r0, #0
 8004b1e:	e7e8      	b.n	8004af2 <__hi0bits+0xc>
 8004b20:	2020      	movs	r0, #32
 8004b22:	4770      	bx	lr

08004b24 <__lo0bits>:
 8004b24:	6803      	ldr	r3, [r0, #0]
 8004b26:	f013 0207 	ands.w	r2, r3, #7
 8004b2a:	4601      	mov	r1, r0
 8004b2c:	d00b      	beq.n	8004b46 <__lo0bits+0x22>
 8004b2e:	07da      	lsls	r2, r3, #31
 8004b30:	d423      	bmi.n	8004b7a <__lo0bits+0x56>
 8004b32:	0798      	lsls	r0, r3, #30
 8004b34:	bf49      	itett	mi
 8004b36:	085b      	lsrmi	r3, r3, #1
 8004b38:	089b      	lsrpl	r3, r3, #2
 8004b3a:	2001      	movmi	r0, #1
 8004b3c:	600b      	strmi	r3, [r1, #0]
 8004b3e:	bf5c      	itt	pl
 8004b40:	600b      	strpl	r3, [r1, #0]
 8004b42:	2002      	movpl	r0, #2
 8004b44:	4770      	bx	lr
 8004b46:	b298      	uxth	r0, r3
 8004b48:	b9a8      	cbnz	r0, 8004b76 <__lo0bits+0x52>
 8004b4a:	0c1b      	lsrs	r3, r3, #16
 8004b4c:	2010      	movs	r0, #16
 8004b4e:	f013 0fff 	tst.w	r3, #255	; 0xff
 8004b52:	bf04      	itt	eq
 8004b54:	0a1b      	lsreq	r3, r3, #8
 8004b56:	3008      	addeq	r0, #8
 8004b58:	071a      	lsls	r2, r3, #28
 8004b5a:	bf04      	itt	eq
 8004b5c:	091b      	lsreq	r3, r3, #4
 8004b5e:	3004      	addeq	r0, #4
 8004b60:	079a      	lsls	r2, r3, #30
 8004b62:	bf04      	itt	eq
 8004b64:	089b      	lsreq	r3, r3, #2
 8004b66:	3002      	addeq	r0, #2
 8004b68:	07da      	lsls	r2, r3, #31
 8004b6a:	d402      	bmi.n	8004b72 <__lo0bits+0x4e>
 8004b6c:	085b      	lsrs	r3, r3, #1
 8004b6e:	d006      	beq.n	8004b7e <__lo0bits+0x5a>
 8004b70:	3001      	adds	r0, #1
 8004b72:	600b      	str	r3, [r1, #0]
 8004b74:	4770      	bx	lr
 8004b76:	4610      	mov	r0, r2
 8004b78:	e7e9      	b.n	8004b4e <__lo0bits+0x2a>
 8004b7a:	2000      	movs	r0, #0
 8004b7c:	4770      	bx	lr
 8004b7e:	2020      	movs	r0, #32
 8004b80:	4770      	bx	lr

08004b82 <__i2b>:
 8004b82:	b510      	push	{r4, lr}
 8004b84:	460c      	mov	r4, r1
 8004b86:	2101      	movs	r1, #1
 8004b88:	f7ff fee9 	bl	800495e <_Balloc>
 8004b8c:	2201      	movs	r2, #1
 8004b8e:	6144      	str	r4, [r0, #20]
 8004b90:	6102      	str	r2, [r0, #16]
 8004b92:	bd10      	pop	{r4, pc}

08004b94 <__multiply>:
 8004b94:	e92d 4ff7 	stmdb	sp!, {r0, r1, r2, r4, r5, r6, r7, r8, r9, sl, fp, lr}
 8004b98:	4614      	mov	r4, r2
 8004b9a:	690a      	ldr	r2, [r1, #16]
 8004b9c:	6923      	ldr	r3, [r4, #16]
 8004b9e:	429a      	cmp	r2, r3
 8004ba0:	bfb8      	it	lt
 8004ba2:	460b      	movlt	r3, r1
 8004ba4:	4689      	mov	r9, r1
 8004ba6:	bfbc      	itt	lt
 8004ba8:	46a1      	movlt	r9, r4
 8004baa:	461c      	movlt	r4, r3
 8004bac:	f8d9 7010 	ldr.w	r7, [r9, #16]
 8004bb0:	f8d4 a010 	ldr.w	sl, [r4, #16]
 8004bb4:	f8d9 3008 	ldr.w	r3, [r9, #8]
 8004bb8:	f8d9 1004 	ldr.w	r1, [r9, #4]
 8004bbc:	eb07 060a 	add.w	r6, r7, sl
 8004bc0:	429e      	cmp	r6, r3
 8004bc2:	bfc8      	it	gt
 8004bc4:	3101      	addgt	r1, #1
 8004bc6:	f7ff feca 	bl	800495e <_Balloc>
 8004bca:	f100 0514 	add.w	r5, r0, #20
 8004bce:	eb05 0886 	add.w	r8, r5, r6, lsl #2
 8004bd2:	462b      	mov	r3, r5
 8004bd4:	2200      	movs	r2, #0
 8004bd6:	4543      	cmp	r3, r8
 8004bd8:	d316      	bcc.n	8004c08 <__multiply+0x74>
 8004bda:	f104 0214 	add.w	r2, r4, #20
 8004bde:	f109 0114 	add.w	r1, r9, #20
 8004be2:	eb02 038a 	add.w	r3, r2, sl, lsl #2
 8004be6:	eb01 0787 	add.w	r7, r1, r7, lsl #2
 8004bea:	9301      	str	r3, [sp, #4]
 8004bec:	9c01      	ldr	r4, [sp, #4]
 8004bee:	4294      	cmp	r4, r2
 8004bf0:	4613      	mov	r3, r2
 8004bf2:	d80c      	bhi.n	8004c0e <__multiply+0x7a>
 8004bf4:	2e00      	cmp	r6, #0
 8004bf6:	dd03      	ble.n	8004c00 <__multiply+0x6c>
 8004bf8:	f858 3d04 	ldr.w	r3, [r8, #-4]!
 8004bfc:	2b00      	cmp	r3, #0
 8004bfe:	d054      	beq.n	8004caa <__multiply+0x116>
 8004c00:	6106      	str	r6, [r0, #16]
 8004c02:	b003      	add	sp, #12
 8004c04:	e8bd 8ff0 	ldmia.w	sp!, {r4, r5, r6, r7, r8, r9, sl, fp, pc}
 8004c08:	f843 2b04 	str.w	r2, [r3], #4
 8004c0c:	e7e3      	b.n	8004bd6 <__multiply+0x42>
 8004c0e:	f8b3 a000 	ldrh.w	sl, [r3]
 8004c12:	3204      	adds	r2, #4
 8004c14:	f1ba 0f00 	cmp.w	sl, #0
 8004c18:	d020      	beq.n	8004c5c <__multiply+0xc8>
 8004c1a:	46ae      	mov	lr, r5
 8004c1c:	4689      	mov	r9, r1
 8004c1e:	f04f 0c00 	mov.w	ip, #0
 8004c22:	f859 4b04 	ldr.w	r4, [r9], #4
 8004c26:	f8be b000 	ldrh.w	fp, [lr]
 8004c2a:	b2a3      	uxth	r3, r4
 8004c2c:	fb0a b303 	mla	r3, sl, r3, fp
 8004c30:	ea4f 4b14 	mov.w	fp, r4, lsr #16
 8004c34:	f8de 4000 	ldr.w	r4, [lr]
 8004c38:	4463      	add	r3, ip
 8004c3a:	ea4f 4c14 	mov.w	ip, r4, lsr #16
 8004c3e:	fb0a c40b 	mla	r4, sl, fp, ip
 8004c42:	eb04 4413 	add.w	r4, r4, r3, lsr #16
 8004c46:	b29b      	uxth	r3, r3
 8004c48:	ea43 4304 	orr.w	r3, r3, r4, lsl #16
 8004c4c:	454f      	cmp	r7, r9
 8004c4e:	ea4f 4c14 	mov.w	ip, r4, lsr #16
 8004c52:	f84e 3b04 	str.w	r3, [lr], #4
 8004c56:	d8e4      	bhi.n	8004c22 <__multiply+0x8e>
 8004c58:	f8ce c000 	str.w	ip, [lr]
 8004c5c:	f832 9c02 	ldrh.w	r9, [r2, #-2]
 8004c60:	f1b9 0f00 	cmp.w	r9, #0
 8004c64:	d01f      	beq.n	8004ca6 <__multiply+0x112>
 8004c66:	682b      	ldr	r3, [r5, #0]
 8004c68:	46ae      	mov	lr, r5
 8004c6a:	468c      	mov	ip, r1
 8004c6c:	f04f 0a00 	mov.w	sl, #0
 8004c70:	f8bc 4000 	ldrh.w	r4, [ip]
 8004c74:	f8be b002 	ldrh.w	fp, [lr, #2]
 8004c78:	fb09 b404 	mla	r4, r9, r4, fp
 8004c7c:	44a2      	add	sl, r4
 8004c7e:	b29b      	uxth	r3, r3
 8004c80:	ea43 430a 	orr.w	r3, r3, sl, lsl #16
 8004c84:	f84e 3b04 	str.w	r3, [lr], #4
 8004c88:	f85c 3b04 	ldr.w	r3, [ip], #4
 8004c8c:	f8be 4000 	ldrh.w	r4, [lr]
 8004c90:	0c1b      	lsrs	r3, r3, #16
 8004c92:	fb09 4303 	mla	r3, r9, r3, r4
 8004c96:	eb03 431a 	add.w	r3, r3, sl, lsr #16
 8004c9a:	4567      	cmp	r7, ip
 8004c9c:	ea4f 4a13 	mov.w	sl, r3, lsr #16
 8004ca0:	d8e6      	bhi.n	8004c70 <__multiply+0xdc>
 8004ca2:	f8ce 3000 	str.w	r3, [lr]
 8004ca6:	3504      	adds	r5, #4
 8004ca8:	e7a0      	b.n	8004bec <__multiply+0x58>
 8004caa:	3e01      	subs	r6, #1
 8004cac:	e7a2      	b.n	8004bf4 <__multiply+0x60>
	...

08004cb0 <__pow5mult>:
 8004cb0:	e92d 43f8 	stmdb	sp!, {r3, r4, r5, r6, r7, r8, r9, lr}
 8004cb4:	4615      	mov	r5, r2
 8004cb6:	f012 0203 	ands.w	r2, r2, #3
 8004cba:	4606      	mov	r6, r0
 8004cbc:	460f      	mov	r7, r1
 8004cbe:	d007      	beq.n	8004cd0 <__pow5mult+0x20>
 8004cc0:	3a01      	subs	r2, #1
 8004cc2:	4c21      	ldr	r4, [pc, #132]	; (8004d48 <__pow5mult+0x98>)
 8004cc4:	2300      	movs	r3, #0
 8004cc6:	f854 2022 	ldr.w	r2, [r4, r2, lsl #2]
 8004cca:	f7ff fe93 	bl	80049f4 <__multadd>
 8004cce:	4607      	mov	r7, r0
 8004cd0:	10ad      	asrs	r5, r5, #2
 8004cd2:	d035      	beq.n	8004d40 <__pow5mult+0x90>
 8004cd4:	6a74      	ldr	r4, [r6, #36]	; 0x24
 8004cd6:	b93c      	cbnz	r4, 8004ce8 <__pow5mult+0x38>
 8004cd8:	2010      	movs	r0, #16
 8004cda:	f7ff fe1b 	bl	8004914 <malloc>
 8004cde:	6270      	str	r0, [r6, #36]	; 0x24
 8004ce0:	6044      	str	r4, [r0, #4]
 8004ce2:	6084      	str	r4, [r0, #8]
 8004ce4:	6004      	str	r4, [r0, #0]
 8004ce6:	60c4      	str	r4, [r0, #12]
 8004ce8:	f8d6 8024 	ldr.w	r8, [r6, #36]	; 0x24
 8004cec:	f8d8 4008 	ldr.w	r4, [r8, #8]
 8004cf0:	b94c      	cbnz	r4, 8004d06 <__pow5mult+0x56>
 8004cf2:	f240 2171 	movw	r1, #625	; 0x271
 8004cf6:	4630      	mov	r0, r6
 8004cf8:	f7ff ff43 	bl	8004b82 <__i2b>
 8004cfc:	2300      	movs	r3, #0
 8004cfe:	f8c8 0008 	str.w	r0, [r8, #8]
 8004d02:	4604      	mov	r4, r0
 8004d04:	6003      	str	r3, [r0, #0]
 8004d06:	f04f 0800 	mov.w	r8, #0
 8004d0a:	07eb      	lsls	r3, r5, #31
 8004d0c:	d50a      	bpl.n	8004d24 <__pow5mult+0x74>
 8004d0e:	4639      	mov	r1, r7
 8004d10:	4622      	mov	r2, r4
 8004d12:	4630      	mov	r0, r6
 8004d14:	f7ff ff3e 	bl	8004b94 <__multiply>
 8004d18:	4639      	mov	r1, r7
 8004d1a:	4681      	mov	r9, r0
 8004d1c:	4630      	mov	r0, r6
 8004d1e:	f7ff fe52 	bl	80049c6 <_Bfree>
 8004d22:	464f      	mov	r7, r9
 8004d24:	106d      	asrs	r5, r5, #1
 8004d26:	d00b      	beq.n	8004d40 <__pow5mult+0x90>
 8004d28:	6820      	ldr	r0, [r4, #0]
 8004d2a:	b938      	cbnz	r0, 8004d3c <__pow5mult+0x8c>
 8004d2c:	4622      	mov	r2, r4
 8004d2e:	4621      	mov	r1, r4
 8004d30:	4630      	mov	r0, r6
 8004d32:	f7ff ff2f 	bl	8004b94 <__multiply>
 8004d36:	6020      	str	r0, [r4, #0]
 8004d38:	f8c0 8000 	str.w	r8, [r0]
 8004d3c:	4604      	mov	r4, r0
 8004d3e:	e7e4      	b.n	8004d0a <__pow5mult+0x5a>
 8004d40:	4638      	mov	r0, r7
 8004d42:	e8bd 83f8 	ldmia.w	sp!, {r3, r4, r5, r6, r7, r8, r9, pc}
 8004d46:	bf00      	nop
 8004d48:	08005978 	.word	0x08005978

08004d4c <__lshift>:
 8004d4c:	e92d 47f0 	stmdb	sp!, {r4, r5, r6, r7, r8, r9, sl, lr}
 8004d50:	460c      	mov	r4, r1
 8004d52:	ea4f 1a62 	mov.w	sl, r2, asr #5
 8004d56:	6923      	ldr	r3, [r4, #16]
 8004d58:	6849      	ldr	r1, [r1, #4]
 8004d5a:	eb0a 0903 	add.w	r9, sl, r3
 8004d5e:	68a3      	ldr	r3, [r4, #8]
 8004d60:	4607      	mov	r7, r0
 8004d62:	4616      	mov	r6, r2
 8004d64:	f109 0501 	add.w	r5, r9, #1
 8004d68:	42ab      	cmp	r3, r5
 8004d6a:	db31      	blt.n	8004dd0 <__lshift+0x84>
 8004d6c:	4638      	mov	r0, r7
 8004d6e:	f7ff fdf6 	bl	800495e <_Balloc>
 8004d72:	2200      	movs	r2, #0
 8004d74:	4680      	mov	r8, r0
 8004d76:	f100 0314 	add.w	r3, r0, #20
 8004d7a:	4611      	mov	r1, r2
 8004d7c:	4552      	cmp	r2, sl
 8004d7e:	db2a      	blt.n	8004dd6 <__lshift+0x8a>
 8004d80:	6920      	ldr	r0, [r4, #16]
 8004d82:	ea2a 7aea 	bic.w	sl, sl, sl, asr #31
 8004d86:	f104 0114 	add.w	r1, r4, #20
 8004d8a:	f016 021f 	ands.w	r2, r6, #31
 8004d8e:	eb03 038a 	add.w	r3, r3, sl, lsl #2
 8004d92:	eb01 0e80 	add.w	lr, r1, r0, lsl #2
 8004d96:	d022      	beq.n	8004dde <__lshift+0x92>
 8004d98:	f1c2 0c20 	rsb	ip, r2, #32
 8004d9c:	2000      	movs	r0, #0
 8004d9e:	680e      	ldr	r6, [r1, #0]
 8004da0:	4096      	lsls	r6, r2
 8004da2:	4330      	orrs	r0, r6
 8004da4:	f843 0b04 	str.w	r0, [r3], #4
 8004da8:	f851 0b04 	ldr.w	r0, [r1], #4
 8004dac:	458e      	cmp	lr, r1
 8004dae:	fa20 f00c 	lsr.w	r0, r0, ip
 8004db2:	d8f4      	bhi.n	8004d9e <__lshift+0x52>
 8004db4:	6018      	str	r0, [r3, #0]
 8004db6:	b108      	cbz	r0, 8004dbc <__lshift+0x70>
 8004db8:	f109 0502 	add.w	r5, r9, #2
 8004dbc:	3d01      	subs	r5, #1
 8004dbe:	4638      	mov	r0, r7
 8004dc0:	f8c8 5010 	str.w	r5, [r8, #16]
 8004dc4:	4621      	mov	r1, r4
 8004dc6:	f7ff fdfe 	bl	80049c6 <_Bfree>
 8004dca:	4640      	mov	r0, r8
 8004dcc:	e8bd 87f0 	ldmia.w	sp!, {r4, r5, r6, r7, r8, r9, sl, pc}
 8004dd0:	3101      	adds	r1, #1
 8004dd2:	005b      	lsls	r3, r3, #1
 8004dd4:	e7c8      	b.n	8004d68 <__lshift+0x1c>
 8004dd6:	f843 1022 	str.w	r1, [r3, r2, lsl #2]
 8004dda:	3201      	adds	r2, #1
 8004ddc:	e7ce      	b.n	8004d7c <__lshift+0x30>
 8004dde:	3b04      	subs	r3, #4
 8004de0:	f851 2b04 	ldr.w	r2, [r1], #4
 8004de4:	f843 2f04 	str.w	r2, [r3, #4]!
 8004de8:	458e      	cmp	lr, r1
 8004dea:	d8f9      	bhi.n	8004de0 <__lshift+0x94>
 8004dec:	e7e6      	b.n	8004dbc <__lshift+0x70>

08004dee <__mcmp>:
 8004dee:	6903      	ldr	r3, [r0, #16]
 8004df0:	690a      	ldr	r2, [r1, #16]
 8004df2:	1a9b      	subs	r3, r3, r2
 8004df4:	b530      	push	{r4, r5, lr}
 8004df6:	d10c      	bne.n	8004e12 <__mcmp+0x24>
 8004df8:	0092      	lsls	r2, r2, #2
 8004dfa:	3014      	adds	r0, #20
 8004dfc:	3114      	adds	r1, #20
 8004dfe:	1884      	adds	r4, r0, r2
 8004e00:	4411      	add	r1, r2
 8004e02:	f854 5d04 	ldr.w	r5, [r4, #-4]!
 8004e06:	f851 2d04 	ldr.w	r2, [r1, #-4]!
 8004e0a:	4295      	cmp	r5, r2
 8004e0c:	d003      	beq.n	8004e16 <__mcmp+0x28>
 8004e0e:	d305      	bcc.n	8004e1c <__mcmp+0x2e>
 8004e10:	2301      	movs	r3, #1
 8004e12:	4618      	mov	r0, r3
 8004e14:	bd30      	pop	{r4, r5, pc}
 8004e16:	42a0      	cmp	r0, r4
 8004e18:	d3f3      	bcc.n	8004e02 <__mcmp+0x14>
 8004e1a:	e7fa      	b.n	8004e12 <__mcmp+0x24>
 8004e1c:	f04f 33ff 	mov.w	r3, #4294967295
 8004e20:	e7f7      	b.n	8004e12 <__mcmp+0x24>

08004e22 <__mdiff>:
 8004e22:	e92d 47f0 	stmdb	sp!, {r4, r5, r6, r7, r8, r9, sl, lr}
 8004e26:	460d      	mov	r5, r1
 8004e28:	4607      	mov	r7, r0
 8004e2a:	4611      	mov	r1, r2
 8004e2c:	4628      	mov	r0, r5
 8004e2e:	4614      	mov	r4, r2
 8004e30:	f7ff ffdd 	bl	8004dee <__mcmp>
 8004e34:	1e06      	subs	r6, r0, #0
 8004e36:	d108      	bne.n	8004e4a <__mdiff+0x28>
 8004e38:	4631      	mov	r1, r6
 8004e3a:	4638      	mov	r0, r7
 8004e3c:	f7ff fd8f 	bl	800495e <_Balloc>
 8004e40:	2301      	movs	r3, #1
 8004e42:	6103      	str	r3, [r0, #16]
 8004e44:	6146      	str	r6, [r0, #20]
 8004e46:	e8bd 87f0 	ldmia.w	sp!, {r4, r5, r6, r7, r8, r9, sl, pc}
 8004e4a:	bfa4      	itt	ge
 8004e4c:	4623      	movge	r3, r4
 8004e4e:	462c      	movge	r4, r5
 8004e50:	4638      	mov	r0, r7
 8004e52:	6861      	ldr	r1, [r4, #4]
 8004e54:	bfa6      	itte	ge
 8004e56:	461d      	movge	r5, r3
 8004e58:	2600      	movge	r6, #0
 8004e5a:	2601      	movlt	r6, #1
 8004e5c:	f7ff fd7f 	bl	800495e <_Balloc>
 8004e60:	692b      	ldr	r3, [r5, #16]
 8004e62:	60c6      	str	r6, [r0, #12]
 8004e64:	6926      	ldr	r6, [r4, #16]
 8004e66:	f105 0914 	add.w	r9, r5, #20
 8004e6a:	f104 0214 	add.w	r2, r4, #20
 8004e6e:	eb02 0786 	add.w	r7, r2, r6, lsl #2
 8004e72:	eb09 0883 	add.w	r8, r9, r3, lsl #2
 8004e76:	f100 0514 	add.w	r5, r0, #20
 8004e7a:	f04f 0c00 	mov.w	ip, #0
 8004e7e:	f852 ab04 	ldr.w	sl, [r2], #4
 8004e82:	f859 4b04 	ldr.w	r4, [r9], #4
 8004e86:	fa1c f18a 	uxtah	r1, ip, sl
 8004e8a:	b2a3      	uxth	r3, r4
 8004e8c:	1ac9      	subs	r1, r1, r3
 8004e8e:	0c23      	lsrs	r3, r4, #16
 8004e90:	ebc3 431a 	rsb	r3, r3, sl, lsr #16
 8004e94:	eb03 4321 	add.w	r3, r3, r1, asr #16
 8004e98:	b289      	uxth	r1, r1
 8004e9a:	ea4f 4c23 	mov.w	ip, r3, asr #16
 8004e9e:	45c8      	cmp	r8, r9
 8004ea0:	ea41 4303 	orr.w	r3, r1, r3, lsl #16
 8004ea4:	4696      	mov	lr, r2
 8004ea6:	f845 3b04 	str.w	r3, [r5], #4
 8004eaa:	d8e8      	bhi.n	8004e7e <__mdiff+0x5c>
 8004eac:	45be      	cmp	lr, r7
 8004eae:	d305      	bcc.n	8004ebc <__mdiff+0x9a>
 8004eb0:	f855 3d04 	ldr.w	r3, [r5, #-4]!
 8004eb4:	b18b      	cbz	r3, 8004eda <__mdiff+0xb8>
 8004eb6:	6106      	str	r6, [r0, #16]
 8004eb8:	e8bd 87f0 	ldmia.w	sp!, {r4, r5, r6, r7, r8, r9, sl, pc}
 8004ebc:	f85e 1b04 	ldr.w	r1, [lr], #4
 8004ec0:	fa1c f381 	uxtah	r3, ip, r1
 8004ec4:	141a      	asrs	r2, r3, #16
 8004ec6:	eb02 4211 	add.w	r2, r2, r1, lsr #16
 8004eca:	b29b      	uxth	r3, r3
 8004ecc:	ea43 4302 	orr.w	r3, r3, r2, lsl #16
 8004ed0:	ea4f 4c22 	mov.w	ip, r2, asr #16
 8004ed4:	f845 3b04 	str.w	r3, [r5], #4
 8004ed8:	e7e8      	b.n	8004eac <__mdiff+0x8a>
 8004eda:	3e01      	subs	r6, #1
 8004edc:	e7e8      	b.n	8004eb0 <__mdiff+0x8e>
	...

08004ee0 <__ulp>:
 8004ee0:	4b12      	ldr	r3, [pc, #72]	; (8004f2c <__ulp+0x4c>)
 8004ee2:	ee10 2a90 	vmov	r2, s1
 8004ee6:	401a      	ands	r2, r3
 8004ee8:	f1a2 7350 	sub.w	r3, r2, #54525952	; 0x3400000
 8004eec:	2b00      	cmp	r3, #0
 8004eee:	dd04      	ble.n	8004efa <__ulp+0x1a>
 8004ef0:	2000      	movs	r0, #0
 8004ef2:	4619      	mov	r1, r3
 8004ef4:	ec41 0b10 	vmov	d0, r0, r1
 8004ef8:	4770      	bx	lr
 8004efa:	425b      	negs	r3, r3
 8004efc:	151b      	asrs	r3, r3, #20
 8004efe:	2b13      	cmp	r3, #19
 8004f00:	f04f 0000 	mov.w	r0, #0
 8004f04:	f04f 0100 	mov.w	r1, #0
 8004f08:	dc04      	bgt.n	8004f14 <__ulp+0x34>
 8004f0a:	f44f 2200 	mov.w	r2, #524288	; 0x80000
 8004f0e:	fa42 f103 	asr.w	r1, r2, r3
 8004f12:	e7ef      	b.n	8004ef4 <__ulp+0x14>
 8004f14:	3b14      	subs	r3, #20
 8004f16:	2b1e      	cmp	r3, #30
 8004f18:	f04f 0201 	mov.w	r2, #1
 8004f1c:	bfda      	itte	le
 8004f1e:	f1c3 031f 	rsble	r3, r3, #31
 8004f22:	fa02 f303 	lslle.w	r3, r2, r3
 8004f26:	4613      	movgt	r3, r2
 8004f28:	4618      	mov	r0, r3
 8004f2a:	e7e3      	b.n	8004ef4 <__ulp+0x14>
 8004f2c:	7ff00000 	.word	0x7ff00000

08004f30 <__b2d>:
 8004f30:	b5f8      	push	{r3, r4, r5, r6, r7, lr}
 8004f32:	6905      	ldr	r5, [r0, #16]
 8004f34:	f100 0714 	add.w	r7, r0, #20
 8004f38:	eb07 0585 	add.w	r5, r7, r5, lsl #2
 8004f3c:	1f2e      	subs	r6, r5, #4
 8004f3e:	f855 4c04 	ldr.w	r4, [r5, #-4]
 8004f42:	4620      	mov	r0, r4
 8004f44:	f7ff fdcf 	bl	8004ae6 <__hi0bits>
 8004f48:	f1c0 0320 	rsb	r3, r0, #32
 8004f4c:	280a      	cmp	r0, #10
 8004f4e:	600b      	str	r3, [r1, #0]
 8004f50:	f8df e074 	ldr.w	lr, [pc, #116]	; 8004fc8 <__b2d+0x98>
 8004f54:	dc14      	bgt.n	8004f80 <__b2d+0x50>
 8004f56:	f1c0 0c0b 	rsb	ip, r0, #11
 8004f5a:	fa24 f10c 	lsr.w	r1, r4, ip
 8004f5e:	42b7      	cmp	r7, r6
 8004f60:	ea41 030e 	orr.w	r3, r1, lr
 8004f64:	bf34      	ite	cc
 8004f66:	f855 1c08 	ldrcc.w	r1, [r5, #-8]
 8004f6a:	2100      	movcs	r1, #0
 8004f6c:	3015      	adds	r0, #21
 8004f6e:	fa04 f000 	lsl.w	r0, r4, r0
 8004f72:	fa21 f10c 	lsr.w	r1, r1, ip
 8004f76:	ea40 0201 	orr.w	r2, r0, r1
 8004f7a:	ec43 2b10 	vmov	d0, r2, r3
 8004f7e:	bdf8      	pop	{r3, r4, r5, r6, r7, pc}
 8004f80:	42b7      	cmp	r7, r6
 8004f82:	bf3a      	itte	cc
 8004f84:	f1a5 0608 	subcc.w	r6, r5, #8
 8004f88:	f855 1c08 	ldrcc.w	r1, [r5, #-8]
 8004f8c:	2100      	movcs	r1, #0
 8004f8e:	380b      	subs	r0, #11
 8004f90:	d015      	beq.n	8004fbe <__b2d+0x8e>
 8004f92:	4084      	lsls	r4, r0
 8004f94:	f1c0 0520 	rsb	r5, r0, #32
 8004f98:	f044 547f 	orr.w	r4, r4, #1069547520	; 0x3fc00000
 8004f9c:	f444 1440 	orr.w	r4, r4, #3145728	; 0x300000
 8004fa0:	42be      	cmp	r6, r7
 8004fa2:	fa21 fe05 	lsr.w	lr, r1, r5
 8004fa6:	ea44 030e 	orr.w	r3, r4, lr
 8004faa:	bf8c      	ite	hi
 8004fac:	f856 4c04 	ldrhi.w	r4, [r6, #-4]
 8004fb0:	2400      	movls	r4, #0
 8004fb2:	fa01 f000 	lsl.w	r0, r1, r0
 8004fb6:	40ec      	lsrs	r4, r5
 8004fb8:	ea40 0204 	orr.w	r2, r0, r4
 8004fbc:	e7dd      	b.n	8004f7a <__b2d+0x4a>
 8004fbe:	ea44 030e 	orr.w	r3, r4, lr
 8004fc2:	460a      	mov	r2, r1
 8004fc4:	e7d9      	b.n	8004f7a <__b2d+0x4a>
 8004fc6:	bf00      	nop
 8004fc8:	3ff00000 	.word	0x3ff00000

08004fcc <__d2b>:
 8004fcc:	e92d 43f7 	stmdb	sp!, {r0, r1, r2, r4, r5, r6, r7, r8, r9, lr}
 8004fd0:	460e      	mov	r6, r1
 8004fd2:	2101      	movs	r1, #1
 8004fd4:	ec59 8b10 	vmov	r8, r9, d0
 8004fd8:	4615      	mov	r5, r2
 8004fda:	f7ff fcc0 	bl	800495e <_Balloc>
 8004fde:	f3c9 540a 	ubfx	r4, r9, #20, #11
 8004fe2:	4607      	mov	r7, r0
 8004fe4:	f3c9 0313 	ubfx	r3, r9, #0, #20
 8004fe8:	bb34      	cbnz	r4, 8005038 <__d2b+0x6c>
 8004fea:	9301      	str	r3, [sp, #4]
 8004fec:	f1b8 0f00 	cmp.w	r8, #0
 8004ff0:	d027      	beq.n	8005042 <__d2b+0x76>
 8004ff2:	a802      	add	r0, sp, #8
 8004ff4:	f840 8d08 	str.w	r8, [r0, #-8]!
 8004ff8:	f7ff fd94 	bl	8004b24 <__lo0bits>
 8004ffc:	9900      	ldr	r1, [sp, #0]
 8004ffe:	b1f0      	cbz	r0, 800503e <__d2b+0x72>
 8005000:	9a01      	ldr	r2, [sp, #4]
 8005002:	f1c0 0320 	rsb	r3, r0, #32
 8005006:	fa02 f303 	lsl.w	r3, r2, r3
 800500a:	430b      	orrs	r3, r1
 800500c:	40c2      	lsrs	r2, r0
 800500e:	617b      	str	r3, [r7, #20]
 8005010:	9201      	str	r2, [sp, #4]
 8005012:	9b01      	ldr	r3, [sp, #4]
 8005014:	61bb      	str	r3, [r7, #24]
 8005016:	2b00      	cmp	r3, #0
 8005018:	bf14      	ite	ne
 800501a:	2102      	movne	r1, #2
 800501c:	2101      	moveq	r1, #1
 800501e:	6139      	str	r1, [r7, #16]
 8005020:	b1c4      	cbz	r4, 8005054 <__d2b+0x88>
 8005022:	f2a4 4433 	subw	r4, r4, #1075	; 0x433
 8005026:	4404      	add	r4, r0
 8005028:	6034      	str	r4, [r6, #0]
 800502a:	f1c0 0035 	rsb	r0, r0, #53	; 0x35
 800502e:	6028      	str	r0, [r5, #0]
 8005030:	4638      	mov	r0, r7
 8005032:	b003      	add	sp, #12
 8005034:	e8bd 83f0 	ldmia.w	sp!, {r4, r5, r6, r7, r8, r9, pc}
 8005038:	f443 1380 	orr.w	r3, r3, #1048576	; 0x100000
 800503c:	e7d5      	b.n	8004fea <__d2b+0x1e>
 800503e:	6179      	str	r1, [r7, #20]
 8005040:	e7e7      	b.n	8005012 <__d2b+0x46>
 8005042:	a801      	add	r0, sp, #4
 8005044:	f7ff fd6e 	bl	8004b24 <__lo0bits>
 8005048:	9b01      	ldr	r3, [sp, #4]
 800504a:	617b      	str	r3, [r7, #20]
 800504c:	2101      	movs	r1, #1
 800504e:	6139      	str	r1, [r7, #16]
 8005050:	3020      	adds	r0, #32
 8005052:	e7e5      	b.n	8005020 <__d2b+0x54>
 8005054:	eb07 0381 	add.w	r3, r7, r1, lsl #2
 8005058:	f2a0 4032 	subw	r0, r0, #1074	; 0x432
 800505c:	6030      	str	r0, [r6, #0]
 800505e:	6918      	ldr	r0, [r3, #16]
 8005060:	f7ff fd41 	bl	8004ae6 <__hi0bits>
 8005064:	ebc0 1041 	rsb	r0, r0, r1, lsl #5
 8005068:	e7e1      	b.n	800502e <__d2b+0x62>

0800506a <__ratio>:
 800506a:	e92d 43f7 	stmdb	sp!, {r0, r1, r2, r4, r5, r6, r7, r8, r9, lr}
 800506e:	4688      	mov	r8, r1
 8005070:	4669      	mov	r1, sp
 8005072:	4681      	mov	r9, r0
 8005074:	f7ff ff5c 	bl	8004f30 <__b2d>
 8005078:	a901      	add	r1, sp, #4
 800507a:	4640      	mov	r0, r8
 800507c:	ec55 4b10 	vmov	r4, r5, d0
 8005080:	f7ff ff56 	bl	8004f30 <__b2d>
 8005084:	f8d9 3010 	ldr.w	r3, [r9, #16]
 8005088:	f8d8 2010 	ldr.w	r2, [r8, #16]
 800508c:	1a9a      	subs	r2, r3, r2
 800508e:	e89d 000a 	ldmia.w	sp, {r1, r3}
 8005092:	1acb      	subs	r3, r1, r3
 8005094:	eb03 1342 	add.w	r3, r3, r2, lsl #5
 8005098:	ec57 6b10 	vmov	r6, r7, d0
 800509c:	2b00      	cmp	r3, #0
 800509e:	bfd6      	itet	le
 80050a0:	ebc3 3303 	rsble	r3, r3, r3, lsl #12
 80050a4:	eb05 5503 	addgt.w	r5, r5, r3, lsl #20
 80050a8:	eb07 5703 	addle.w	r7, r7, r3, lsl #20
 80050ac:	4632      	mov	r2, r6
 80050ae:	463b      	mov	r3, r7
 80050b0:	4620      	mov	r0, r4
 80050b2:	4629      	mov	r1, r5
 80050b4:	f7fb fbfe 	bl	80008b4 <__aeabi_ddiv>
 80050b8:	ec41 0b10 	vmov	d0, r0, r1
 80050bc:	b003      	add	sp, #12
 80050be:	e8bd 83f0 	ldmia.w	sp!, {r4, r5, r6, r7, r8, r9, pc}

080050c2 <__copybits>:
 80050c2:	3901      	subs	r1, #1
 80050c4:	b510      	push	{r4, lr}
 80050c6:	1149      	asrs	r1, r1, #5
 80050c8:	6914      	ldr	r4, [r2, #16]
 80050ca:	3101      	adds	r1, #1
 80050cc:	f102 0314 	add.w	r3, r2, #20
 80050d0:	eb00 0181 	add.w	r1, r0, r1, lsl #2
 80050d4:	eb03 0484 	add.w	r4, r3, r4, lsl #2
 80050d8:	42a3      	cmp	r3, r4
 80050da:	4602      	mov	r2, r0
 80050dc:	d303      	bcc.n	80050e6 <__copybits+0x24>
 80050de:	2300      	movs	r3, #0
 80050e0:	428a      	cmp	r2, r1
 80050e2:	d305      	bcc.n	80050f0 <__copybits+0x2e>
 80050e4:	bd10      	pop	{r4, pc}
 80050e6:	f853 2b04 	ldr.w	r2, [r3], #4
 80050ea:	f840 2b04 	str.w	r2, [r0], #4
 80050ee:	e7f3      	b.n	80050d8 <__copybits+0x16>
 80050f0:	f842 3b04 	str.w	r3, [r2], #4
 80050f4:	e7f4      	b.n	80050e0 <__copybits+0x1e>

080050f6 <__any_on>:
 80050f6:	f100 0214 	add.w	r2, r0, #20
 80050fa:	6900      	ldr	r0, [r0, #16]
 80050fc:	114b      	asrs	r3, r1, #5
 80050fe:	4298      	cmp	r0, r3
 8005100:	b510      	push	{r4, lr}
 8005102:	db11      	blt.n	8005128 <__any_on+0x32>
 8005104:	dd0a      	ble.n	800511c <__any_on+0x26>
 8005106:	f011 011f 	ands.w	r1, r1, #31
 800510a:	d007      	beq.n	800511c <__any_on+0x26>
 800510c:	f852 4023 	ldr.w	r4, [r2, r3, lsl #2]
 8005110:	fa24 f001 	lsr.w	r0, r4, r1
 8005114:	fa00 f101 	lsl.w	r1, r0, r1
 8005118:	428c      	cmp	r4, r1
 800511a:	d10b      	bne.n	8005134 <__any_on+0x3e>
 800511c:	eb02 0383 	add.w	r3, r2, r3, lsl #2
 8005120:	4293      	cmp	r3, r2
 8005122:	d803      	bhi.n	800512c <__any_on+0x36>
 8005124:	2000      	movs	r0, #0
 8005126:	bd10      	pop	{r4, pc}
 8005128:	4603      	mov	r3, r0
 800512a:	e7f7      	b.n	800511c <__any_on+0x26>
 800512c:	f853 1d04 	ldr.w	r1, [r3, #-4]!
 8005130:	2900      	cmp	r1, #0
 8005132:	d0f5      	beq.n	8005120 <__any_on+0x2a>
 8005134:	2001      	movs	r0, #1
 8005136:	bd10      	pop	{r4, pc}

08005138 <_calloc_r>:
 8005138:	b538      	push	{r3, r4, r5, lr}
 800513a:	fb02 f401 	mul.w	r4, r2, r1
 800513e:	4621      	mov	r1, r4
 8005140:	f000 f856 	bl	80051f0 <_malloc_r>
 8005144:	4605      	mov	r5, r0
 8005146:	b118      	cbz	r0, 8005150 <_calloc_r+0x18>
 8005148:	4622      	mov	r2, r4
 800514a:	2100      	movs	r1, #0
 800514c:	f7fc fcc8 	bl	8001ae0 <memset>
 8005150:	4628      	mov	r0, r5
 8005152:	bd38      	pop	{r3, r4, r5, pc}

08005154 <_free_r>:
 8005154:	b538      	push	{r3, r4, r5, lr}
 8005156:	4605      	mov	r5, r0
 8005158:	2900      	cmp	r1, #0
 800515a:	d045      	beq.n	80051e8 <_free_r+0x94>
 800515c:	f851 3c04 	ldr.w	r3, [r1, #-4]
 8005160:	1f0c      	subs	r4, r1, #4
 8005162:	2b00      	cmp	r3, #0
 8005164:	bfb8      	it	lt
 8005166:	18e4      	addlt	r4, r4, r3
 8005168:	f000 fa39 	bl	80055de <__malloc_lock>
 800516c:	4a1f      	ldr	r2, [pc, #124]	; (80051ec <_free_r+0x98>)
 800516e:	6813      	ldr	r3, [r2, #0]
 8005170:	4610      	mov	r0, r2
 8005172:	b933      	cbnz	r3, 8005182 <_free_r+0x2e>
 8005174:	6063      	str	r3, [r4, #4]
 8005176:	6014      	str	r4, [r2, #0]
 8005178:	4628      	mov	r0, r5
 800517a:	e8bd 4038 	ldmia.w	sp!, {r3, r4, r5, lr}
 800517e:	f000 ba2f 	b.w	80055e0 <__malloc_unlock>
 8005182:	42a3      	cmp	r3, r4
 8005184:	d90c      	bls.n	80051a0 <_free_r+0x4c>
 8005186:	6821      	ldr	r1, [r4, #0]
 8005188:	1862      	adds	r2, r4, r1
 800518a:	4293      	cmp	r3, r2
 800518c:	bf04      	itt	eq
 800518e:	681a      	ldreq	r2, [r3, #0]
 8005190:	685b      	ldreq	r3, [r3, #4]
 8005192:	6063      	str	r3, [r4, #4]
 8005194:	bf04      	itt	eq
 8005196:	1852      	addeq	r2, r2, r1
 8005198:	6022      	streq	r2, [r4, #0]
 800519a:	6004      	str	r4, [r0, #0]
 800519c:	e7ec      	b.n	8005178 <_free_r+0x24>
 800519e:	4613      	mov	r3, r2
 80051a0:	685a      	ldr	r2, [r3, #4]
 80051a2:	b10a      	cbz	r2, 80051a8 <_free_r+0x54>
 80051a4:	42a2      	cmp	r2, r4
 80051a6:	d9fa      	bls.n	800519e <_free_r+0x4a>
 80051a8:	6819      	ldr	r1, [r3, #0]
 80051aa:	1858      	adds	r0, r3, r1
 80051ac:	42a0      	cmp	r0, r4
 80051ae:	d10b      	bne.n	80051c8 <_free_r+0x74>
 80051b0:	6820      	ldr	r0, [r4, #0]
 80051b2:	4401      	add	r1, r0
 80051b4:	1858      	adds	r0, r3, r1
 80051b6:	4282      	cmp	r2, r0
 80051b8:	6019      	str	r1, [r3, #0]
 80051ba:	d1dd      	bne.n	8005178 <_free_r+0x24>
 80051bc:	6810      	ldr	r0, [r2, #0]
 80051be:	6852      	ldr	r2, [r2, #4]
 80051c0:	605a      	str	r2, [r3, #4]
 80051c2:	4401      	add	r1, r0
 80051c4:	6019      	str	r1, [r3, #0]
 80051c6:	e7d7      	b.n	8005178 <_free_r+0x24>
 80051c8:	d902      	bls.n	80051d0 <_free_r+0x7c>
 80051ca:	230c      	movs	r3, #12
 80051cc:	602b      	str	r3, [r5, #0]
 80051ce:	e7d3      	b.n	8005178 <_free_r+0x24>
 80051d0:	6820      	ldr	r0, [r4, #0]
 80051d2:	1821      	adds	r1, r4, r0
 80051d4:	428a      	cmp	r2, r1
 80051d6:	bf04      	itt	eq
 80051d8:	6811      	ldreq	r1, [r2, #0]
 80051da:	6852      	ldreq	r2, [r2, #4]
 80051dc:	6062      	str	r2, [r4, #4]
 80051de:	bf04      	itt	eq
 80051e0:	1809      	addeq	r1, r1, r0
 80051e2:	6021      	streq	r1, [r4, #0]
 80051e4:	605c      	str	r4, [r3, #4]
 80051e6:	e7c7      	b.n	8005178 <_free_r+0x24>
 80051e8:	bd38      	pop	{r3, r4, r5, pc}
 80051ea:	bf00      	nop
 80051ec:	20000274 	.word	0x20000274

080051f0 <_malloc_r>:
 80051f0:	b570      	push	{r4, r5, r6, lr}
 80051f2:	1ccd      	adds	r5, r1, #3
 80051f4:	f025 0503 	bic.w	r5, r5, #3
 80051f8:	3508      	adds	r5, #8
 80051fa:	2d0c      	cmp	r5, #12
 80051fc:	bf38      	it	cc
 80051fe:	250c      	movcc	r5, #12
 8005200:	2d00      	cmp	r5, #0
 8005202:	4606      	mov	r6, r0
 8005204:	db01      	blt.n	800520a <_malloc_r+0x1a>
 8005206:	42a9      	cmp	r1, r5
 8005208:	d903      	bls.n	8005212 <_malloc_r+0x22>
 800520a:	230c      	movs	r3, #12
 800520c:	6033      	str	r3, [r6, #0]
 800520e:	2000      	movs	r0, #0
 8005210:	bd70      	pop	{r4, r5, r6, pc}
 8005212:	f000 f9e4 	bl	80055de <__malloc_lock>
 8005216:	4a23      	ldr	r2, [pc, #140]	; (80052a4 <_malloc_r+0xb4>)
 8005218:	6814      	ldr	r4, [r2, #0]
 800521a:	4621      	mov	r1, r4
 800521c:	b991      	cbnz	r1, 8005244 <_malloc_r+0x54>
 800521e:	4c22      	ldr	r4, [pc, #136]	; (80052a8 <_malloc_r+0xb8>)
 8005220:	6823      	ldr	r3, [r4, #0]
 8005222:	b91b      	cbnz	r3, 800522c <_malloc_r+0x3c>
 8005224:	4630      	mov	r0, r6
 8005226:	f000 f991 	bl	800554c <_sbrk_r>
 800522a:	6020      	str	r0, [r4, #0]
 800522c:	4629      	mov	r1, r5
 800522e:	4630      	mov	r0, r6
 8005230:	f000 f98c 	bl	800554c <_sbrk_r>
 8005234:	1c43      	adds	r3, r0, #1
 8005236:	d126      	bne.n	8005286 <_malloc_r+0x96>
 8005238:	230c      	movs	r3, #12
 800523a:	6033      	str	r3, [r6, #0]
 800523c:	4630      	mov	r0, r6
 800523e:	f000 f9cf 	bl	80055e0 <__malloc_unlock>
 8005242:	e7e4      	b.n	800520e <_malloc_r+0x1e>
 8005244:	680b      	ldr	r3, [r1, #0]
 8005246:	1b5b      	subs	r3, r3, r5
 8005248:	d41a      	bmi.n	8005280 <_malloc_r+0x90>
 800524a:	2b0b      	cmp	r3, #11
 800524c:	d90f      	bls.n	800526e <_malloc_r+0x7e>
 800524e:	600b      	str	r3, [r1, #0]
 8005250:	50cd      	str	r5, [r1, r3]
 8005252:	18cc      	adds	r4, r1, r3
 8005254:	4630      	mov	r0, r6
 8005256:	f000 f9c3 	bl	80055e0 <__malloc_unlock>
 800525a:	f104 000b 	add.w	r0, r4, #11
 800525e:	1d23      	adds	r3, r4, #4
 8005260:	f020 0007 	bic.w	r0, r0, #7
 8005264:	1ac3      	subs	r3, r0, r3
 8005266:	d01b      	beq.n	80052a0 <_malloc_r+0xb0>
 8005268:	425a      	negs	r2, r3
 800526a:	50e2      	str	r2, [r4, r3]
 800526c:	bd70      	pop	{r4, r5, r6, pc}
 800526e:	428c      	cmp	r4, r1
 8005270:	bf0d      	iteet	eq
 8005272:	6863      	ldreq	r3, [r4, #4]
 8005274:	684b      	ldrne	r3, [r1, #4]
 8005276:	6063      	strne	r3, [r4, #4]
 8005278:	6013      	streq	r3, [r2, #0]
 800527a:	bf18      	it	ne
 800527c:	460c      	movne	r4, r1
 800527e:	e7e9      	b.n	8005254 <_malloc_r+0x64>
 8005280:	460c      	mov	r4, r1
 8005282:	6849      	ldr	r1, [r1, #4]
 8005284:	e7ca      	b.n	800521c <_malloc_r+0x2c>
 8005286:	1cc4      	adds	r4, r0, #3
 8005288:	f024 0403 	bic.w	r4, r4, #3
 800528c:	42a0      	cmp	r0, r4
 800528e:	d005      	beq.n	800529c <_malloc_r+0xac>
 8005290:	1a21      	subs	r1, r4, r0
 8005292:	4630      	mov	r0, r6
 8005294:	f000 f95a 	bl	800554c <_sbrk_r>
 8005298:	3001      	adds	r0, #1
 800529a:	d0cd      	beq.n	8005238 <_malloc_r+0x48>
 800529c:	6025      	str	r5, [r4, #0]
 800529e:	e7d9      	b.n	8005254 <_malloc_r+0x64>
 80052a0:	bd70      	pop	{r4, r5, r6, pc}
 80052a2:	bf00      	nop
 80052a4:	20000274 	.word	0x20000274
 80052a8:	20000278 	.word	0x20000278

080052ac <__ssputs_r>:
 80052ac:	e92d 47f0 	stmdb	sp!, {r4, r5, r6, r7, r8, r9, sl, lr}
 80052b0:	688e      	ldr	r6, [r1, #8]
 80052b2:	429e      	cmp	r6, r3
 80052b4:	4682      	mov	sl, r0
 80052b6:	460c      	mov	r4, r1
 80052b8:	4691      	mov	r9, r2
 80052ba:	4698      	mov	r8, r3
 80052bc:	d835      	bhi.n	800532a <__ssputs_r+0x7e>
 80052be:	898a      	ldrh	r2, [r1, #12]
 80052c0:	f412 6f90 	tst.w	r2, #1152	; 0x480
 80052c4:	d031      	beq.n	800532a <__ssputs_r+0x7e>
 80052c6:	6825      	ldr	r5, [r4, #0]
 80052c8:	6909      	ldr	r1, [r1, #16]
 80052ca:	1a6f      	subs	r7, r5, r1
 80052cc:	6965      	ldr	r5, [r4, #20]
 80052ce:	2302      	movs	r3, #2
 80052d0:	eb05 0545 	add.w	r5, r5, r5, lsl #1
 80052d4:	fb95 f5f3 	sdiv	r5, r5, r3
 80052d8:	f108 0301 	add.w	r3, r8, #1
 80052dc:	443b      	add	r3, r7
 80052de:	429d      	cmp	r5, r3
 80052e0:	bf38      	it	cc
 80052e2:	461d      	movcc	r5, r3
 80052e4:	0553      	lsls	r3, r2, #21
 80052e6:	d531      	bpl.n	800534c <__ssputs_r+0xa0>
 80052e8:	4629      	mov	r1, r5
 80052ea:	f7ff ff81 	bl	80051f0 <_malloc_r>
 80052ee:	4606      	mov	r6, r0
 80052f0:	b950      	cbnz	r0, 8005308 <__ssputs_r+0x5c>
 80052f2:	230c      	movs	r3, #12
 80052f4:	f8ca 3000 	str.w	r3, [sl]
 80052f8:	89a3      	ldrh	r3, [r4, #12]
 80052fa:	f043 0340 	orr.w	r3, r3, #64	; 0x40
 80052fe:	81a3      	strh	r3, [r4, #12]
 8005300:	f04f 30ff 	mov.w	r0, #4294967295
 8005304:	e8bd 87f0 	ldmia.w	sp!, {r4, r5, r6, r7, r8, r9, sl, pc}
 8005308:	463a      	mov	r2, r7
 800530a:	6921      	ldr	r1, [r4, #16]
 800530c:	f7ff fb1c 	bl	8004948 <memcpy>
 8005310:	89a3      	ldrh	r3, [r4, #12]
 8005312:	f423 6390 	bic.w	r3, r3, #1152	; 0x480
 8005316:	f043 0380 	orr.w	r3, r3, #128	; 0x80
 800531a:	81a3      	strh	r3, [r4, #12]
 800531c:	6126      	str	r6, [r4, #16]
 800531e:	6165      	str	r5, [r4, #20]
 8005320:	443e      	add	r6, r7
 8005322:	1bed      	subs	r5, r5, r7
 8005324:	6026      	str	r6, [r4, #0]
 8005326:	60a5      	str	r5, [r4, #8]
 8005328:	4646      	mov	r6, r8
 800532a:	4546      	cmp	r6, r8
 800532c:	bf28      	it	cs
 800532e:	4646      	movcs	r6, r8
 8005330:	4632      	mov	r2, r6
 8005332:	4649      	mov	r1, r9
 8005334:	6820      	ldr	r0, [r4, #0]
 8005336:	f000 f938 	bl	80055aa <memmove>
 800533a:	68a3      	ldr	r3, [r4, #8]
 800533c:	1b9b      	subs	r3, r3, r6
 800533e:	60a3      	str	r3, [r4, #8]
 8005340:	6823      	ldr	r3, [r4, #0]
 8005342:	441e      	add	r6, r3
 8005344:	6026      	str	r6, [r4, #0]
 8005346:	2000      	movs	r0, #0
 8005348:	e8bd 87f0 	ldmia.w	sp!, {r4, r5, r6, r7, r8, r9, sl, pc}
 800534c:	462a      	mov	r2, r5
 800534e:	f000 f948 	bl	80055e2 <_realloc_r>
 8005352:	4606      	mov	r6, r0
 8005354:	2800      	cmp	r0, #0
 8005356:	d1e1      	bne.n	800531c <__ssputs_r+0x70>
 8005358:	6921      	ldr	r1, [r4, #16]
 800535a:	4650      	mov	r0, sl
 800535c:	f7ff fefa 	bl	8005154 <_free_r>
 8005360:	e7c7      	b.n	80052f2 <__ssputs_r+0x46>
	...

08005364 <_svfiprintf_r>:
 8005364:	e92d 4ff0 	stmdb	sp!, {r4, r5, r6, r7, r8, r9, sl, fp, lr}
 8005368:	b09d      	sub	sp, #116	; 0x74
 800536a:	4680      	mov	r8, r0
 800536c:	9303      	str	r3, [sp, #12]
 800536e:	898b      	ldrh	r3, [r1, #12]
 8005370:	061c      	lsls	r4, r3, #24
 8005372:	460d      	mov	r5, r1
 8005374:	4616      	mov	r6, r2
 8005376:	d50f      	bpl.n	8005398 <_svfiprintf_r+0x34>
 8005378:	690b      	ldr	r3, [r1, #16]
 800537a:	b96b      	cbnz	r3, 8005398 <_svfiprintf_r+0x34>
 800537c:	2140      	movs	r1, #64	; 0x40
 800537e:	f7ff ff37 	bl	80051f0 <_malloc_r>
 8005382:	6028      	str	r0, [r5, #0]
 8005384:	6128      	str	r0, [r5, #16]
 8005386:	b928      	cbnz	r0, 8005394 <_svfiprintf_r+0x30>
 8005388:	230c      	movs	r3, #12
 800538a:	f8c8 3000 	str.w	r3, [r8]
 800538e:	f04f 30ff 	mov.w	r0, #4294967295
 8005392:	e0c5      	b.n	8005520 <_svfiprintf_r+0x1bc>
 8005394:	2340      	movs	r3, #64	; 0x40
 8005396:	616b      	str	r3, [r5, #20]
 8005398:	2300      	movs	r3, #0
 800539a:	9309      	str	r3, [sp, #36]	; 0x24
 800539c:	2320      	movs	r3, #32
 800539e:	f88d 3029 	strb.w	r3, [sp, #41]	; 0x29
 80053a2:	2330      	movs	r3, #48	; 0x30
 80053a4:	f88d 302a 	strb.w	r3, [sp, #42]	; 0x2a
 80053a8:	f04f 0b01 	mov.w	fp, #1
 80053ac:	4637      	mov	r7, r6
 80053ae:	463c      	mov	r4, r7
 80053b0:	f814 3b01 	ldrb.w	r3, [r4], #1
 80053b4:	2b00      	cmp	r3, #0
 80053b6:	d13c      	bne.n	8005432 <_svfiprintf_r+0xce>
 80053b8:	ebb7 0a06 	subs.w	sl, r7, r6
 80053bc:	d00b      	beq.n	80053d6 <_svfiprintf_r+0x72>
 80053be:	4653      	mov	r3, sl
 80053c0:	4632      	mov	r2, r6
 80053c2:	4629      	mov	r1, r5
 80053c4:	4640      	mov	r0, r8
 80053c6:	f7ff ff71 	bl	80052ac <__ssputs_r>
 80053ca:	3001      	adds	r0, #1
 80053cc:	f000 80a3 	beq.w	8005516 <_svfiprintf_r+0x1b2>
 80053d0:	9b09      	ldr	r3, [sp, #36]	; 0x24
 80053d2:	4453      	add	r3, sl
 80053d4:	9309      	str	r3, [sp, #36]	; 0x24
 80053d6:	783b      	ldrb	r3, [r7, #0]
 80053d8:	2b00      	cmp	r3, #0
 80053da:	f000 809c 	beq.w	8005516 <_svfiprintf_r+0x1b2>
 80053de:	2300      	movs	r3, #0
 80053e0:	f04f 32ff 	mov.w	r2, #4294967295
 80053e4:	9304      	str	r3, [sp, #16]
 80053e6:	9307      	str	r3, [sp, #28]
 80053e8:	9205      	str	r2, [sp, #20]
 80053ea:	9306      	str	r3, [sp, #24]
 80053ec:	f88d 3053 	strb.w	r3, [sp, #83]	; 0x53
 80053f0:	931a      	str	r3, [sp, #104]	; 0x68
 80053f2:	2205      	movs	r2, #5
 80053f4:	7821      	ldrb	r1, [r4, #0]
 80053f6:	4850      	ldr	r0, [pc, #320]	; (8005538 <_svfiprintf_r+0x1d4>)
 80053f8:	f7fa ff2a 	bl	8000250 <memchr>
 80053fc:	1c67      	adds	r7, r4, #1
 80053fe:	9b04      	ldr	r3, [sp, #16]
 8005400:	b9d8      	cbnz	r0, 800543a <_svfiprintf_r+0xd6>
 8005402:	06d9      	lsls	r1, r3, #27
 8005404:	bf44      	itt	mi
 8005406:	2220      	movmi	r2, #32
 8005408:	f88d 2053 	strbmi.w	r2, [sp, #83]	; 0x53
 800540c:	071a      	lsls	r2, r3, #28
 800540e:	bf44      	itt	mi
 8005410:	222b      	movmi	r2, #43	; 0x2b
 8005412:	f88d 2053 	strbmi.w	r2, [sp, #83]	; 0x53
 8005416:	7822      	ldrb	r2, [r4, #0]
 8005418:	2a2a      	cmp	r2, #42	; 0x2a
 800541a:	d016      	beq.n	800544a <_svfiprintf_r+0xe6>
 800541c:	9a07      	ldr	r2, [sp, #28]
 800541e:	2100      	movs	r1, #0
 8005420:	200a      	movs	r0, #10
 8005422:	4627      	mov	r7, r4
 8005424:	3401      	adds	r4, #1
 8005426:	783b      	ldrb	r3, [r7, #0]
 8005428:	3b30      	subs	r3, #48	; 0x30
 800542a:	2b09      	cmp	r3, #9
 800542c:	d951      	bls.n	80054d2 <_svfiprintf_r+0x16e>
 800542e:	b1c9      	cbz	r1, 8005464 <_svfiprintf_r+0x100>
 8005430:	e011      	b.n	8005456 <_svfiprintf_r+0xf2>
 8005432:	2b25      	cmp	r3, #37	; 0x25
 8005434:	d0c0      	beq.n	80053b8 <_svfiprintf_r+0x54>
 8005436:	4627      	mov	r7, r4
 8005438:	e7b9      	b.n	80053ae <_svfiprintf_r+0x4a>
 800543a:	4a3f      	ldr	r2, [pc, #252]	; (8005538 <_svfiprintf_r+0x1d4>)
 800543c:	1a80      	subs	r0, r0, r2
 800543e:	fa0b f000 	lsl.w	r0, fp, r0
 8005442:	4318      	orrs	r0, r3
 8005444:	9004      	str	r0, [sp, #16]
 8005446:	463c      	mov	r4, r7
 8005448:	e7d3      	b.n	80053f2 <_svfiprintf_r+0x8e>
 800544a:	9a03      	ldr	r2, [sp, #12]
 800544c:	1d11      	adds	r1, r2, #4
 800544e:	6812      	ldr	r2, [r2, #0]
 8005450:	9103      	str	r1, [sp, #12]
 8005452:	2a00      	cmp	r2, #0
 8005454:	db01      	blt.n	800545a <_svfiprintf_r+0xf6>
 8005456:	9207      	str	r2, [sp, #28]
 8005458:	e004      	b.n	8005464 <_svfiprintf_r+0x100>
 800545a:	4252      	negs	r2, r2
 800545c:	f043 0302 	orr.w	r3, r3, #2
 8005460:	9207      	str	r2, [sp, #28]
 8005462:	9304      	str	r3, [sp, #16]
 8005464:	783b      	ldrb	r3, [r7, #0]
 8005466:	2b2e      	cmp	r3, #46	; 0x2e
 8005468:	d10e      	bne.n	8005488 <_svfiprintf_r+0x124>
 800546a:	787b      	ldrb	r3, [r7, #1]
 800546c:	2b2a      	cmp	r3, #42	; 0x2a
 800546e:	f107 0101 	add.w	r1, r7, #1
 8005472:	d132      	bne.n	80054da <_svfiprintf_r+0x176>
 8005474:	9b03      	ldr	r3, [sp, #12]
 8005476:	1d1a      	adds	r2, r3, #4
 8005478:	681b      	ldr	r3, [r3, #0]
 800547a:	9203      	str	r2, [sp, #12]
 800547c:	2b00      	cmp	r3, #0
 800547e:	bfb8      	it	lt
 8005480:	f04f 33ff 	movlt.w	r3, #4294967295
 8005484:	3702      	adds	r7, #2
 8005486:	9305      	str	r3, [sp, #20]
 8005488:	4c2c      	ldr	r4, [pc, #176]	; (800553c <_svfiprintf_r+0x1d8>)
 800548a:	7839      	ldrb	r1, [r7, #0]
 800548c:	2203      	movs	r2, #3
 800548e:	4620      	mov	r0, r4
 8005490:	f7fa fede 	bl	8000250 <memchr>
 8005494:	b138      	cbz	r0, 80054a6 <_svfiprintf_r+0x142>
 8005496:	2340      	movs	r3, #64	; 0x40
 8005498:	1b00      	subs	r0, r0, r4
 800549a:	fa03 f000 	lsl.w	r0, r3, r0
 800549e:	9b04      	ldr	r3, [sp, #16]
 80054a0:	4303      	orrs	r3, r0
 80054a2:	9304      	str	r3, [sp, #16]
 80054a4:	3701      	adds	r7, #1
 80054a6:	7839      	ldrb	r1, [r7, #0]
 80054a8:	4825      	ldr	r0, [pc, #148]	; (8005540 <_svfiprintf_r+0x1dc>)
 80054aa:	f88d 1028 	strb.w	r1, [sp, #40]	; 0x28
 80054ae:	2206      	movs	r2, #6
 80054b0:	1c7e      	adds	r6, r7, #1
 80054b2:	f7fa fecd 	bl	8000250 <memchr>
 80054b6:	2800      	cmp	r0, #0
 80054b8:	d035      	beq.n	8005526 <_svfiprintf_r+0x1c2>
 80054ba:	4b22      	ldr	r3, [pc, #136]	; (8005544 <_svfiprintf_r+0x1e0>)
 80054bc:	b9fb      	cbnz	r3, 80054fe <_svfiprintf_r+0x19a>
 80054be:	9b03      	ldr	r3, [sp, #12]
 80054c0:	3307      	adds	r3, #7
 80054c2:	f023 0307 	bic.w	r3, r3, #7
 80054c6:	3308      	adds	r3, #8
 80054c8:	9303      	str	r3, [sp, #12]
 80054ca:	9b09      	ldr	r3, [sp, #36]	; 0x24
 80054cc:	444b      	add	r3, r9
 80054ce:	9309      	str	r3, [sp, #36]	; 0x24
 80054d0:	e76c      	b.n	80053ac <_svfiprintf_r+0x48>
 80054d2:	fb00 3202 	mla	r2, r0, r2, r3
 80054d6:	2101      	movs	r1, #1
 80054d8:	e7a3      	b.n	8005422 <_svfiprintf_r+0xbe>
 80054da:	2300      	movs	r3, #0
 80054dc:	9305      	str	r3, [sp, #20]
 80054de:	4618      	mov	r0, r3
 80054e0:	240a      	movs	r4, #10
 80054e2:	460f      	mov	r7, r1
 80054e4:	3101      	adds	r1, #1
 80054e6:	783a      	ldrb	r2, [r7, #0]
 80054e8:	3a30      	subs	r2, #48	; 0x30
 80054ea:	2a09      	cmp	r2, #9
 80054ec:	d903      	bls.n	80054f6 <_svfiprintf_r+0x192>
 80054ee:	2b00      	cmp	r3, #0
 80054f0:	d0ca      	beq.n	8005488 <_svfiprintf_r+0x124>
 80054f2:	9005      	str	r0, [sp, #20]
 80054f4:	e7c8      	b.n	8005488 <_svfiprintf_r+0x124>
 80054f6:	fb04 2000 	mla	r0, r4, r0, r2
 80054fa:	2301      	movs	r3, #1
 80054fc:	e7f1      	b.n	80054e2 <_svfiprintf_r+0x17e>
 80054fe:	ab03      	add	r3, sp, #12
 8005500:	9300      	str	r3, [sp, #0]
 8005502:	462a      	mov	r2, r5
 8005504:	4b10      	ldr	r3, [pc, #64]	; (8005548 <_svfiprintf_r+0x1e4>)
 8005506:	a904      	add	r1, sp, #16
 8005508:	4640      	mov	r0, r8
 800550a:	f7fc fb87 	bl	8001c1c <_printf_float>
 800550e:	f1b0 3fff 	cmp.w	r0, #4294967295
 8005512:	4681      	mov	r9, r0
 8005514:	d1d9      	bne.n	80054ca <_svfiprintf_r+0x166>
 8005516:	89ab      	ldrh	r3, [r5, #12]
 8005518:	065b      	lsls	r3, r3, #25
 800551a:	f53f af38 	bmi.w	800538e <_svfiprintf_r+0x2a>
 800551e:	9809      	ldr	r0, [sp, #36]	; 0x24
 8005520:	b01d      	add	sp, #116	; 0x74
 8005522:	e8bd 8ff0 	ldmia.w	sp!, {r4, r5, r6, r7, r8, r9, sl, fp, pc}
 8005526:	ab03      	add	r3, sp, #12
 8005528:	9300      	str	r3, [sp, #0]
 800552a:	462a      	mov	r2, r5
 800552c:	4b06      	ldr	r3, [pc, #24]	; (8005548 <_svfiprintf_r+0x1e4>)
 800552e:	a904      	add	r1, sp, #16
 8005530:	4640      	mov	r0, r8
 8005532:	f7fc fe29 	bl	8002188 <_printf_i>
 8005536:	e7ea      	b.n	800550e <_svfiprintf_r+0x1aa>
 8005538:	08005984 	.word	0x08005984
 800553c:	0800598a 	.word	0x0800598a
 8005540:	0800598e 	.word	0x0800598e
 8005544:	08001c1d 	.word	0x08001c1d
 8005548:	080052ad 	.word	0x080052ad

0800554c <_sbrk_r>:
 800554c:	b538      	push	{r3, r4, r5, lr}
 800554e:	4c06      	ldr	r4, [pc, #24]	; (8005568 <_sbrk_r+0x1c>)
 8005550:	2300      	movs	r3, #0
 8005552:	4605      	mov	r5, r0
 8005554:	4608      	mov	r0, r1
 8005556:	6023      	str	r3, [r4, #0]
 8005558:	f7fc fa6c 	bl	8001a34 <_sbrk>
 800555c:	1c43      	adds	r3, r0, #1
 800555e:	d102      	bne.n	8005566 <_sbrk_r+0x1a>
 8005560:	6823      	ldr	r3, [r4, #0]
 8005562:	b103      	cbz	r3, 8005566 <_sbrk_r+0x1a>
 8005564:	602b      	str	r3, [r5, #0]
 8005566:	bd38      	pop	{r3, r4, r5, pc}
 8005568:	2000027c 	.word	0x2000027c

0800556c <strncmp>:
 800556c:	b510      	push	{r4, lr}
 800556e:	b16a      	cbz	r2, 800558c <strncmp+0x20>
 8005570:	3901      	subs	r1, #1
 8005572:	1884      	adds	r4, r0, r2
 8005574:	f810 3b01 	ldrb.w	r3, [r0], #1
 8005578:	f811 2f01 	ldrb.w	r2, [r1, #1]!
 800557c:	4293      	cmp	r3, r2
 800557e:	d103      	bne.n	8005588 <strncmp+0x1c>
 8005580:	42a0      	cmp	r0, r4
 8005582:	d001      	beq.n	8005588 <strncmp+0x1c>
 8005584:	2b00      	cmp	r3, #0
 8005586:	d1f5      	bne.n	8005574 <strncmp+0x8>
 8005588:	1a98      	subs	r0, r3, r2
 800558a:	bd10      	pop	{r4, pc}
 800558c:	4610      	mov	r0, r2
 800558e:	bd10      	pop	{r4, pc}

08005590 <__ascii_wctomb>:
 8005590:	b149      	cbz	r1, 80055a6 <__ascii_wctomb+0x16>
 8005592:	2aff      	cmp	r2, #255	; 0xff
 8005594:	bf85      	ittet	hi
 8005596:	238a      	movhi	r3, #138	; 0x8a
 8005598:	6003      	strhi	r3, [r0, #0]
 800559a:	700a      	strbls	r2, [r1, #0]
 800559c:	f04f 30ff 	movhi.w	r0, #4294967295
 80055a0:	bf98      	it	ls
 80055a2:	2001      	movls	r0, #1
 80055a4:	4770      	bx	lr
 80055a6:	4608      	mov	r0, r1
 80055a8:	4770      	bx	lr

080055aa <memmove>:
 80055aa:	4288      	cmp	r0, r1
 80055ac:	b510      	push	{r4, lr}
 80055ae:	eb01 0302 	add.w	r3, r1, r2
 80055b2:	d803      	bhi.n	80055bc <memmove+0x12>
 80055b4:	1e42      	subs	r2, r0, #1
 80055b6:	4299      	cmp	r1, r3
 80055b8:	d10c      	bne.n	80055d4 <memmove+0x2a>
 80055ba:	bd10      	pop	{r4, pc}
 80055bc:	4298      	cmp	r0, r3
 80055be:	d2f9      	bcs.n	80055b4 <memmove+0xa>
 80055c0:	1881      	adds	r1, r0, r2
 80055c2:	1ad2      	subs	r2, r2, r3
 80055c4:	42d3      	cmn	r3, r2
 80055c6:	d100      	bne.n	80055ca <memmove+0x20>
 80055c8:	bd10      	pop	{r4, pc}
 80055ca:	f813 4d01 	ldrb.w	r4, [r3, #-1]!
 80055ce:	f801 4d01 	strb.w	r4, [r1, #-1]!
 80055d2:	e7f7      	b.n	80055c4 <memmove+0x1a>
 80055d4:	f811 4b01 	ldrb.w	r4, [r1], #1
 80055d8:	f802 4f01 	strb.w	r4, [r2, #1]!
 80055dc:	e7eb      	b.n	80055b6 <memmove+0xc>

080055de <__malloc_lock>:
 80055de:	4770      	bx	lr

080055e0 <__malloc_unlock>:
 80055e0:	4770      	bx	lr

080055e2 <_realloc_r>:
 80055e2:	b5f8      	push	{r3, r4, r5, r6, r7, lr}
 80055e4:	4607      	mov	r7, r0
 80055e6:	4614      	mov	r4, r2
 80055e8:	460e      	mov	r6, r1
 80055ea:	b921      	cbnz	r1, 80055f6 <_realloc_r+0x14>
 80055ec:	4611      	mov	r1, r2
 80055ee:	e8bd 40f8 	ldmia.w	sp!, {r3, r4, r5, r6, r7, lr}
 80055f2:	f7ff bdfd 	b.w	80051f0 <_malloc_r>
 80055f6:	b922      	cbnz	r2, 8005602 <_realloc_r+0x20>
 80055f8:	f7ff fdac 	bl	8005154 <_free_r>
 80055fc:	4625      	mov	r5, r4
 80055fe:	4628      	mov	r0, r5
 8005600:	bdf8      	pop	{r3, r4, r5, r6, r7, pc}
 8005602:	f000 f814 	bl	800562e <_malloc_usable_size_r>
 8005606:	4284      	cmp	r4, r0
 8005608:	d90f      	bls.n	800562a <_realloc_r+0x48>
 800560a:	4621      	mov	r1, r4
 800560c:	4638      	mov	r0, r7
 800560e:	f7ff fdef 	bl	80051f0 <_malloc_r>
 8005612:	4605      	mov	r5, r0
 8005614:	2800      	cmp	r0, #0
 8005616:	d0f2      	beq.n	80055fe <_realloc_r+0x1c>
 8005618:	4631      	mov	r1, r6
 800561a:	4622      	mov	r2, r4
 800561c:	f7ff f994 	bl	8004948 <memcpy>
 8005620:	4631      	mov	r1, r6
 8005622:	4638      	mov	r0, r7
 8005624:	f7ff fd96 	bl	8005154 <_free_r>
 8005628:	e7e9      	b.n	80055fe <_realloc_r+0x1c>
 800562a:	4635      	mov	r5, r6
 800562c:	e7e7      	b.n	80055fe <_realloc_r+0x1c>

0800562e <_malloc_usable_size_r>:
 800562e:	f851 0c04 	ldr.w	r0, [r1, #-4]
 8005632:	2800      	cmp	r0, #0
 8005634:	f1a0 0004 	sub.w	r0, r0, #4
 8005638:	bfbc      	itt	lt
 800563a:	580b      	ldrlt	r3, [r1, r0]
 800563c:	18c0      	addlt	r0, r0, r3
 800563e:	4770      	bx	lr

08005640 <_init>:
 8005640:	b5f8      	push	{r3, r4, r5, r6, r7, lr}
 8005642:	bf00      	nop
 8005644:	bcf8      	pop	{r3, r4, r5, r6, r7}
 8005646:	bc08      	pop	{r3}
 8005648:	469e      	mov	lr, r3
 800564a:	4770      	bx	lr

0800564c <_fini>:
 800564c:	b5f8      	push	{r3, r4, r5, r6, r7, lr}
 800564e:	bf00      	nop
 8005650:	bcf8      	pop	{r3, r4, r5, r6, r7}
 8005652:	bc08      	pop	{r3}
 8005654:	469e      	mov	lr, r3
 8005656:	4770      	bx	lr
